SF:/Users/mailund/Code/block-flow/block-macros/src/block.rs
FN:55,_RNCNvNtCs53OBr2X2p0y_12block_macros5block10block_impl0B5_
FN:57,_RNCNvNtCs53OBr2X2p0y_12block_macros5block10block_impls0_0B5_
FN:58,_RNCNvNtCs53OBr2X2p0y_12block_macros5block10block_impls1_0B5_
FN:60,_RNCNvNtCs53OBr2X2p0y_12block_macros5block10block_impls2_0B5_
FN:56,_RNCNvNtCs53OBr2X2p0y_12block_macros5block10block_impls_0B5_
FN:5,_RNvNtCs53OBr2X2p0y_12block_macros5block10block_impl
FN:55,_RNCNvNtCscRHNzOhEHoh_12block_macros5block10block_impl0B5_
FN:57,_RNCNvNtCscRHNzOhEHoh_12block_macros5block10block_impls0_0B5_
FN:58,_RNCNvNtCscRHNzOhEHoh_12block_macros5block10block_impls1_0B5_
FN:60,_RNCNvNtCscRHNzOhEHoh_12block_macros5block10block_impls2_0B5_
FN:56,_RNCNvNtCscRHNzOhEHoh_12block_macros5block10block_impls_0B5_
FN:5,_RNvNtCscRHNzOhEHoh_12block_macros5block10block_impl
FNDA:0,_RNCNvNtCs53OBr2X2p0y_12block_macros5block10block_impl0B5_
FNDA:0,_RNCNvNtCs53OBr2X2p0y_12block_macros5block10block_impls0_0B5_
FNDA:0,_RNCNvNtCs53OBr2X2p0y_12block_macros5block10block_impls1_0B5_
FNDA:0,_RNCNvNtCs53OBr2X2p0y_12block_macros5block10block_impls2_0B5_
FNDA:0,_RNCNvNtCs53OBr2X2p0y_12block_macros5block10block_impls_0B5_
FNDA:0,_RNvNtCs53OBr2X2p0y_12block_macros5block10block_impl
FNDA:8,_RNCNvNtCscRHNzOhEHoh_12block_macros5block10block_impl0B5_
FNDA:8,_RNCNvNtCscRHNzOhEHoh_12block_macros5block10block_impls0_0B5_
FNDA:8,_RNCNvNtCscRHNzOhEHoh_12block_macros5block10block_impls1_0B5_
FNDA:6,_RNCNvNtCscRHNzOhEHoh_12block_macros5block10block_impls2_0B5_
FNDA:8,_RNCNvNtCscRHNzOhEHoh_12block_macros5block10block_impls_0B5_
FNDA:8,_RNvNtCscRHNzOhEHoh_12block_macros5block10block_impl
FNF:6
FNH:6
DA:5,8
DA:6,8
DA:7,8
DA:9,8
DA:10,8
DA:11,8
DA:12,8
DA:13,8
DA:16,8
DA:18,2
DA:19,2
DA:21,4
DA:22,2
DA:23,2
DA:26,2
DA:27,0
DA:28,0
DA:29,0
DA:30,0
DA:31,0
DA:32,0
DA:33,0
DA:34,0
DA:35,0
DA:36,0
DA:38,0
DA:40,2
DA:41,2
DA:42,2
DA:43,2
DA:44,2
DA:45,2
DA:46,0
DA:48,0
DA:50,0
DA:52,6
DA:55,8
DA:56,8
DA:57,8
DA:58,8
DA:59,8
DA:60,8
DA:62,8
DA:75,8
DA:76,8
BRF:0
BRH:0
LF:50
LH:36
end_of_record
SF:/Users/mailund/Code/block-flow/block-macros/src/execute.rs
FN:13,_RNCNvNtCs53OBr2X2p0y_12block_macros7execute12execute_impl0B5_
FN:206,_RNCNvNtCs53OBr2X2p0y_12block_macros7execute15is_last_segment0B5_
FN:224,_RNvNtCs53OBr2X2p0y_12block_macros7execute10is_intents
FN:5,_RNvNtCs53OBr2X2p0y_12block_macros7execute12execute_impl
FN:212,_RNvNtCs53OBr2X2p0y_12block_macros7execute13is_ident_type
FN:200,_RNvNtCs53OBr2X2p0y_12block_macros7execute15is_last_segment
FN:220,_RNvNtCs53OBr2X2p0y_12block_macros7execute8is_state
FN:216,_RNvNtCs53OBr2X2p0y_12block_macros7execute9is_output
FN:195,_RNvNtCs53OBr2X2p0y_12block_macros7execute9is_ref_to
FN:224,_RNvNtCscRHNzOhEHoh_12block_macros7execute10is_intents
FN:5,_RNvNtCscRHNzOhEHoh_12block_macros7execute12execute_impl
FN:212,_RNvNtCscRHNzOhEHoh_12block_macros7execute13is_ident_type
FN:200,_RNvNtCscRHNzOhEHoh_12block_macros7execute15is_last_segment
FN:220,_RNvNtCscRHNzOhEHoh_12block_macros7execute8is_state
FN:216,_RNvNtCscRHNzOhEHoh_12block_macros7execute9is_output
FN:195,_RNvNtCscRHNzOhEHoh_12block_macros7execute9is_ref_to
FN:13,_RNCNvNtCscRHNzOhEHoh_12block_macros7execute12execute_impl0B5_
FN:206,_RNCNvNtCscRHNzOhEHoh_12block_macros7execute15is_last_segment0B5_
FNDA:0,_RNCNvNtCs53OBr2X2p0y_12block_macros7execute12execute_impl0B5_
FNDA:0,_RNCNvNtCs53OBr2X2p0y_12block_macros7execute15is_last_segment0B5_
FNDA:0,_RNvNtCs53OBr2X2p0y_12block_macros7execute10is_intents
FNDA:0,_RNvNtCs53OBr2X2p0y_12block_macros7execute12execute_impl
FNDA:0,_RNvNtCs53OBr2X2p0y_12block_macros7execute13is_ident_type
FNDA:0,_RNvNtCs53OBr2X2p0y_12block_macros7execute15is_last_segment
FNDA:0,_RNvNtCs53OBr2X2p0y_12block_macros7execute8is_state
FNDA:0,_RNvNtCs53OBr2X2p0y_12block_macros7execute9is_output
FNDA:0,_RNvNtCs53OBr2X2p0y_12block_macros7execute9is_ref_to
FNDA:2,_RNvNtCscRHNzOhEHoh_12block_macros7execute10is_intents
FNDA:8,_RNvNtCscRHNzOhEHoh_12block_macros7execute12execute_impl
FNDA:6,_RNvNtCscRHNzOhEHoh_12block_macros7execute13is_ident_type
FNDA:18,_RNvNtCscRHNzOhEHoh_12block_macros7execute15is_last_segment
FNDA:2,_RNvNtCscRHNzOhEHoh_12block_macros7execute8is_state
FNDA:6,_RNvNtCscRHNzOhEHoh_12block_macros7execute9is_output
FNDA:8,_RNvNtCscRHNzOhEHoh_12block_macros7execute9is_ref_to
FNDA:8,_RNCNvNtCscRHNzOhEHoh_12block_macros7execute12execute_impl0B5_
FNDA:18,_RNCNvNtCscRHNzOhEHoh_12block_macros7execute15is_last_segment0B5_
FNF:9
FNH:9
DA:5,8
DA:6,8
DA:9,8
DA:10,8
DA:13,8
DA:14,8
DA:15,0
DA:16,8
DA:17,8
DA:18,0
DA:19,0
DA:20,0
DA:21,0
DA:22,0
DA:23,0
DA:27,8
DA:28,8
DA:29,8
DA:31,16
DA:32,16
DA:33,8
DA:34,2
DA:35,6
DA:36,6
DA:37,6
DA:38,0
DA:39,0
DA:40,0
DA:41,0
DA:42,0
DA:43,0
DA:44,0
DA:45,0
DA:47,8
DA:51,8
DA:52,8
DA:55,8
DA:59,8
DA:60,8
DA:61,8
DA:64,8
DA:65,8
DA:66,8
DA:67,8
DA:68,8
DA:69,8
DA:70,8
DA:73,8
DA:82,8
DA:85,8
DA:88,2
DA:93,6
DA:94,6
DA:99,6
DA:100,4
DA:107,2
DA:108,0
DA:115,2
DA:116,2
DA:123,0
DA:124,0
DA:127,0
DA:128,0
DA:137,0
DA:138,0
DA:147,0
DA:148,0
DA:157,0
DA:158,0
DA:159,0
DA:160,0
DA:162,0
DA:171,0
DA:172,0
DA:173,0
DA:174,0
DA:175,0
DA:176,0
DA:179,0
DA:180,0
DA:181,0
DA:182,0
DA:183,0
DA:184,0
DA:190,8
DA:192,8
DA:193,8
DA:195,8
DA:196,2
DA:197,8
DA:200,18
DA:201,18
DA:202,18
DA:203,18
DA:204,18
DA:205,18
DA:206,18
DA:207,18
DA:208,0
DA:210,18
DA:212,6
DA:213,6
DA:214,6
DA:216,6
DA:217,6
DA:218,6
DA:220,2
DA:221,2
DA:222,2
DA:224,2
DA:225,2
DA:226,2
BRF:0
BRH:0
LF:114
LH:72
end_of_record
SF:/Users/mailund/Code/block-flow/block-macros/src/init_params.rs
FN:5,_RNvNtCs53OBr2X2p0y_12block_macros11init_params16init_params_impl
FN:5,_RNvNtCscRHNzOhEHoh_12block_macros11init_params16init_params_impl
FNDA:0,_RNvNtCs53OBr2X2p0y_12block_macros11init_params16init_params_impl
FNDA:8,_RNvNtCscRHNzOhEHoh_12block_macros11init_params16init_params_impl
FNF:1
FNH:1
DA:5,8
DA:6,8
DA:8,8
DA:13,8
DA:14,8
BRF:0
BRH:0
LF:5
LH:5
end_of_record
SF:/Users/mailund/Code/block-flow/block-macros/src/input.rs
FN:73,_RNCNvNtCs53OBr2X2p0y_12block_macros5input10input_impl0B5_
FN:80,_RNCNvNtCs53OBr2X2p0y_12block_macros5input10input_impls0_0B5_
FN:86,_RNCNvNtCs53OBr2X2p0y_12block_macros5input10input_impls1_0B5_
FN:92,_RNCNvNtCs53OBr2X2p0y_12block_macros5input10input_impls2_0B5_
FN:75,_RNCNvNtCs53OBr2X2p0y_12block_macros5input10input_impls_0B5_
FN:5,_RNvNtCs53OBr2X2p0y_12block_macros5input10input_impl
FN:5,_RNvNtCscRHNzOhEHoh_12block_macros5input10input_impl
FN:73,_RNCNvNtCscRHNzOhEHoh_12block_macros5input10input_impl0B5_
FN:80,_RNCNvNtCscRHNzOhEHoh_12block_macros5input10input_impls0_0B5_
FN:86,_RNCNvNtCscRHNzOhEHoh_12block_macros5input10input_impls1_0B5_
FN:92,_RNCNvNtCscRHNzOhEHoh_12block_macros5input10input_impls2_0B5_
FN:75,_RNCNvNtCscRHNzOhEHoh_12block_macros5input10input_impls_0B5_
FNDA:0,_RNCNvNtCs53OBr2X2p0y_12block_macros5input10input_impl0B5_
FNDA:0,_RNCNvNtCs53OBr2X2p0y_12block_macros5input10input_impls0_0B5_
FNDA:0,_RNCNvNtCs53OBr2X2p0y_12block_macros5input10input_impls1_0B5_
FNDA:0,_RNCNvNtCs53OBr2X2p0y_12block_macros5input10input_impls2_0B5_
FNDA:0,_RNCNvNtCs53OBr2X2p0y_12block_macros5input10input_impls_0B5_
FNDA:0,_RNvNtCs53OBr2X2p0y_12block_macros5input10input_impl
FNDA:8,_RNvNtCscRHNzOhEHoh_12block_macros5input10input_impl
FNDA:6,_RNCNvNtCscRHNzOhEHoh_12block_macros5input10input_impl0B5_
FNDA:6,_RNCNvNtCscRHNzOhEHoh_12block_macros5input10input_impls0_0B5_
FNDA:6,_RNCNvNtCscRHNzOhEHoh_12block_macros5input10input_impls1_0B5_
FNDA:6,_RNCNvNtCscRHNzOhEHoh_12block_macros5input10input_impls2_0B5_
FNDA:6,_RNCNvNtCscRHNzOhEHoh_12block_macros5input10input_impls_0B5_
FNF:6
FNH:6
DA:5,8
DA:6,8
DA:7,8
DA:9,8
DA:10,8
DA:11,8
DA:13,8
DA:14,8
DA:15,8
DA:18,8
DA:19,8
DA:20,6
DA:21,2
DA:22,0
DA:24,0
DA:28,8
DA:29,2
DA:68,2
DA:69,6
DA:72,6
DA:73,6
DA:75,6
DA:76,6
DA:77,6
DA:78,6
DA:80,6
DA:81,6
DA:82,6
DA:83,6
DA:84,6
DA:86,6
DA:87,6
DA:88,6
DA:89,6
DA:90,6
DA:92,6
DA:93,6
DA:94,6
DA:95,6
DA:97,6
DA:143,6
DA:144,8
BRF:0
BRH:0
LF:47
LH:45
end_of_record
SF:/Users/mailund/Code/block-flow/block-macros/src/lib.rs
FN:32,_RNvCs53OBr2X2p0y_12block_macros11init_params
FN:39,_RNvCs53OBr2X2p0y_12block_macros13make_defaults
FN:27,_RNvCs53OBr2X2p0y_12block_macros5block
FN:11,_RNvCs53OBr2X2p0y_12block_macros5input
FN:21,_RNvCs53OBr2X2p0y_12block_macros5state
FN:16,_RNvCs53OBr2X2p0y_12block_macros6output
FN:47,_RNvCs53OBr2X2p0y_12block_macros7execute
FN:32,_RNvCscRHNzOhEHoh_12block_macros11init_params
FN:39,_RNvCscRHNzOhEHoh_12block_macros13make_defaults
FN:27,_RNvCscRHNzOhEHoh_12block_macros5block
FN:11,_RNvCscRHNzOhEHoh_12block_macros5input
FN:21,_RNvCscRHNzOhEHoh_12block_macros5state
FN:16,_RNvCscRHNzOhEHoh_12block_macros6output
FN:47,_RNvCscRHNzOhEHoh_12block_macros7execute
FNDA:0,_RNvCs53OBr2X2p0y_12block_macros11init_params
FNDA:0,_RNvCs53OBr2X2p0y_12block_macros13make_defaults
FNDA:0,_RNvCs53OBr2X2p0y_12block_macros5block
FNDA:0,_RNvCs53OBr2X2p0y_12block_macros5input
FNDA:0,_RNvCs53OBr2X2p0y_12block_macros5state
FNDA:0,_RNvCs53OBr2X2p0y_12block_macros6output
FNDA:0,_RNvCs53OBr2X2p0y_12block_macros7execute
FNDA:8,_RNvCscRHNzOhEHoh_12block_macros11init_params
FNDA:8,_RNvCscRHNzOhEHoh_12block_macros13make_defaults
FNDA:8,_RNvCscRHNzOhEHoh_12block_macros5block
FNDA:8,_RNvCscRHNzOhEHoh_12block_macros5input
FNDA:8,_RNvCscRHNzOhEHoh_12block_macros5state
FNDA:8,_RNvCscRHNzOhEHoh_12block_macros6output
FNDA:8,_RNvCscRHNzOhEHoh_12block_macros7execute
FNF:7
FNH:7
DA:11,8
DA:12,8
DA:13,8
DA:16,8
DA:17,8
DA:18,8
DA:21,8
DA:23,8
DA:24,8
DA:27,8
DA:28,8
DA:29,8
DA:32,8
DA:33,8
DA:34,8
DA:39,8
DA:40,8
DA:41,8
DA:47,8
DA:48,8
DA:49,8
BRF:0
BRH:0
LF:21
LH:21
end_of_record
SF:/Users/mailund/Code/block-flow/block-macros/src/make_defaults.rs
FN:109,_RNCNvMNtCs53OBr2X2p0y_12block_macros13make_defaultsNtB4_4Spec12default_name0B6_
FN:46,_RNCNvNtCs53OBr2X2p0y_12block_macros13make_defaults18make_defaults_impl0B5_
FN:52,_RNCNvNtCs53OBr2X2p0y_12block_macros13make_defaults18make_defaults_impls0_0B5_
FN:55,_RNCNvNtCs53OBr2X2p0y_12block_macros13make_defaults18make_defaults_impls1_0B5_
FN:49,_RNCNvNtCs53OBr2X2p0y_12block_macros13make_defaults18make_defaults_impls_0B5_
FN:86,_RNCNvNtCs53OBr2X2p0y_12block_macros13make_defaults8set_once0B5_
FN:107,_RNvMNtCs53OBr2X2p0y_12block_macros13make_defaultsNtB2_4Spec12default_name
FN:65,_RNvNtCs53OBr2X2p0y_12block_macros13make_defaults10gen_struct
FN:89,_RNvNtCs53OBr2X2p0y_12block_macros13make_defaults17default_ident_for
FN:10,_RNvNtCs53OBr2X2p0y_12block_macros13make_defaults18make_defaults_impl
FN:80,_RNvNtCs53OBr2X2p0y_12block_macros13make_defaults8set_once
FN:139,_RNvXs0_NtCs53OBr2X2p0y_12block_macros13make_defaultsNtB5_8SpecItemNtNtCsgEZGNehO46h_3syn5parse5Parse5parse
FN:125,_RNvXs_NtCs53OBr2X2p0y_12block_macros13make_defaultsNtB4_4SpecNtNtCsgEZGNehO46h_3syn5parse5Parse5parse
FN:107,_RNvMNtCscRHNzOhEHoh_12block_macros13make_defaultsNtB2_4Spec12default_name
FN:65,_RNvNtCscRHNzOhEHoh_12block_macros13make_defaults10gen_struct
FN:89,_RNvNtCscRHNzOhEHoh_12block_macros13make_defaults17default_ident_for
FN:10,_RNvNtCscRHNzOhEHoh_12block_macros13make_defaults18make_defaults_impl
FN:80,_RNvNtCscRHNzOhEHoh_12block_macros13make_defaults8set_once
FN:139,_RNvXs0_NtCscRHNzOhEHoh_12block_macros13make_defaultsNtB5_8SpecItemNtNtCsgEZGNehO46h_3syn5parse5Parse5parse
FN:125,_RNvXs_NtCscRHNzOhEHoh_12block_macros13make_defaultsNtB4_4SpecNtNtCsgEZGNehO46h_3syn5parse5Parse5parse
FN:109,_RNCNvMNtCscRHNzOhEHoh_12block_macros13make_defaultsNtB4_4Spec12default_name0B6_
FN:46,_RNCNvNtCscRHNzOhEHoh_12block_macros13make_defaults18make_defaults_impl0B5_
FN:52,_RNCNvNtCscRHNzOhEHoh_12block_macros13make_defaults18make_defaults_impls0_0B5_
FN:55,_RNCNvNtCscRHNzOhEHoh_12block_macros13make_defaults18make_defaults_impls1_0B5_
FN:49,_RNCNvNtCscRHNzOhEHoh_12block_macros13make_defaults18make_defaults_impls_0B5_
FN:86,_RNCNvNtCscRHNzOhEHoh_12block_macros13make_defaults8set_once0B5_
FNDA:0,_RNCNvMNtCs53OBr2X2p0y_12block_macros13make_defaultsNtB4_4Spec12default_name0B6_
FNDA:0,_RNCNvNtCs53OBr2X2p0y_12block_macros13make_defaults18make_defaults_impl0B5_
FNDA:0,_RNCNvNtCs53OBr2X2p0y_12block_macros13make_defaults18make_defaults_impls0_0B5_
FNDA:0,_RNCNvNtCs53OBr2X2p0y_12block_macros13make_defaults18make_defaults_impls1_0B5_
FNDA:0,_RNCNvNtCs53OBr2X2p0y_12block_macros13make_defaults18make_defaults_impls_0B5_
FNDA:0,_RNCNvNtCs53OBr2X2p0y_12block_macros13make_defaults8set_once0B5_
FNDA:0,_RNvMNtCs53OBr2X2p0y_12block_macros13make_defaultsNtB2_4Spec12default_name
FNDA:0,_RNvNtCs53OBr2X2p0y_12block_macros13make_defaults10gen_struct
FNDA:0,_RNvNtCs53OBr2X2p0y_12block_macros13make_defaults17default_ident_for
FNDA:0,_RNvNtCs53OBr2X2p0y_12block_macros13make_defaults18make_defaults_impl
FNDA:0,_RNvNtCs53OBr2X2p0y_12block_macros13make_defaults8set_once
FNDA:0,_RNvXs0_NtCs53OBr2X2p0y_12block_macros13make_defaultsNtB5_8SpecItemNtNtCsgEZGNehO46h_3syn5parse5Parse5parse
FNDA:0,_RNvXs_NtCs53OBr2X2p0y_12block_macros13make_defaultsNtB4_4SpecNtNtCsgEZGNehO46h_3syn5parse5Parse5parse
FNDA:15,_RNvMNtCscRHNzOhEHoh_12block_macros13make_defaultsNtB2_4Spec12default_name
FNDA:17,_RNvNtCscRHNzOhEHoh_12block_macros13make_defaults10gen_struct
FNDA:17,_RNvNtCscRHNzOhEHoh_12block_macros13make_defaults17default_ident_for
FNDA:8,_RNvNtCscRHNzOhEHoh_12block_macros13make_defaults18make_defaults_impl
FNDA:17,_RNvNtCscRHNzOhEHoh_12block_macros13make_defaults8set_once
FNDA:17,_RNvXs0_NtCscRHNzOhEHoh_12block_macros13make_defaultsNtB5_8SpecItemNtNtCsgEZGNehO46h_3syn5parse5Parse5parse
FNDA:8,_RNvXs_NtCscRHNzOhEHoh_12block_macros13make_defaultsNtB4_4SpecNtNtCsgEZGNehO46h_3syn5parse5Parse5parse
FNDA:29,_RNCNvMNtCscRHNzOhEHoh_12block_macros13make_defaultsNtB4_4Spec12default_name0B6_
FNDA:6,_RNCNvNtCscRHNzOhEHoh_12block_macros13make_defaults18make_defaults_impl0B5_
FNDA:5,_RNCNvNtCscRHNzOhEHoh_12block_macros13make_defaults18make_defaults_impls0_0B5_
FNDA:0,_RNCNvNtCscRHNzOhEHoh_12block_macros13make_defaults18make_defaults_impls1_0B5_
FNDA:4,_RNCNvNtCscRHNzOhEHoh_12block_macros13make_defaults18make_defaults_impls_0B5_
FNDA:17,_RNCNvNtCscRHNzOhEHoh_12block_macros13make_defaults8set_once0B5_
FNF:13
FNH:12
DA:10,8
DA:11,8
DA:14,8
DA:15,8
DA:16,8
DA:17,8
DA:19,25
DA:20,17
DA:21,17
DA:22,15
DA:23,11
DA:24,8
DA:25,0
DA:26,0
DA:27,0
DA:28,0
DA:29,0
DA:30,0
DA:31,0
DA:32,0
DA:33,0
DA:39,8
DA:40,8
DA:41,8
DA:42,8
DA:44,8
DA:46,8
DA:47,2
DA:48,6
DA:49,8
DA:50,4
DA:51,4
DA:52,8
DA:53,3
DA:54,5
DA:55,8
DA:56,8
DA:57,8
DA:59,8
DA:60,8
DA:65,17
DA:66,17
DA:67,17
DA:77,17
DA:80,17
DA:81,17
DA:84,0
DA:85,17
DA:86,17
DA:87,17
DA:89,17
DA:90,17
DA:91,17
DA:92,15
DA:93,11
DA:94,8
DA:95,0
DA:97,17
DA:107,15
DA:109,29
DA:110,15
DA:111,15
DA:112,0
DA:115,0
DA:116,15
DA:125,8
DA:126,8
DA:127,0
DA:128,8
DA:130,8
DA:132,8
DA:133,8
DA:134,8
DA:135,8
DA:139,17
DA:140,17
DA:141,17
DA:142,0
DA:143,0
DA:145,17
DA:148,17
DA:149,17
BRF:0
BRH:0
LF:88
LH:71
end_of_record
SF:/Users/mailund/Code/block-flow/block-macros/src/output.rs
FN:75,_RNCNvNtCs53OBr2X2p0y_12block_macros6output11output_impl0B5_
FN:82,_RNCNvNtCs53OBr2X2p0y_12block_macros6output11output_impls0_0B5_
FN:88,_RNCNvNtCs53OBr2X2p0y_12block_macros6output11output_impls1_0B5_
FN:94,_RNCNvNtCs53OBr2X2p0y_12block_macros6output11output_impls2_0B5_
FN:99,_RNCNvNtCs53OBr2X2p0y_12block_macros6output11output_impls3_0B5_
FN:77,_RNCNvNtCs53OBr2X2p0y_12block_macros6output11output_impls_0B5_
FN:5,_RNvNtCs53OBr2X2p0y_12block_macros6output11output_impl
FN:5,_RNvNtCscRHNzOhEHoh_12block_macros6output11output_impl
FN:75,_RNCNvNtCscRHNzOhEHoh_12block_macros6output11output_impl0B5_
FN:82,_RNCNvNtCscRHNzOhEHoh_12block_macros6output11output_impls0_0B5_
FN:88,_RNCNvNtCscRHNzOhEHoh_12block_macros6output11output_impls1_0B5_
FN:94,_RNCNvNtCscRHNzOhEHoh_12block_macros6output11output_impls2_0B5_
FN:99,_RNCNvNtCscRHNzOhEHoh_12block_macros6output11output_impls3_0B5_
FN:77,_RNCNvNtCscRHNzOhEHoh_12block_macros6output11output_impls_0B5_
FNDA:0,_RNCNvNtCs53OBr2X2p0y_12block_macros6output11output_impl0B5_
FNDA:0,_RNCNvNtCs53OBr2X2p0y_12block_macros6output11output_impls0_0B5_
FNDA:0,_RNCNvNtCs53OBr2X2p0y_12block_macros6output11output_impls1_0B5_
FNDA:0,_RNCNvNtCs53OBr2X2p0y_12block_macros6output11output_impls2_0B5_
FNDA:0,_RNCNvNtCs53OBr2X2p0y_12block_macros6output11output_impls3_0B5_
FNDA:0,_RNCNvNtCs53OBr2X2p0y_12block_macros6output11output_impls_0B5_
FNDA:0,_RNvNtCs53OBr2X2p0y_12block_macros6output11output_impl
FNDA:8,_RNvNtCscRHNzOhEHoh_12block_macros6output11output_impl
FNDA:4,_RNCNvNtCscRHNzOhEHoh_12block_macros6output11output_impl0B5_
FNDA:4,_RNCNvNtCscRHNzOhEHoh_12block_macros6output11output_impls0_0B5_
FNDA:4,_RNCNvNtCscRHNzOhEHoh_12block_macros6output11output_impls1_0B5_
FNDA:4,_RNCNvNtCscRHNzOhEHoh_12block_macros6output11output_impls2_0B5_
FNDA:4,_RNCNvNtCscRHNzOhEHoh_12block_macros6output11output_impls3_0B5_
FNDA:4,_RNCNvNtCscRHNzOhEHoh_12block_macros6output11output_impls_0B5_
FNF:7
FNH:7
DA:5,8
DA:6,8
DA:7,8
DA:9,8
DA:10,8
DA:11,8
DA:13,8
DA:14,8
DA:15,8
DA:18,8
DA:19,8
DA:20,4
DA:21,4
DA:22,0
DA:24,0
DA:28,8
DA:29,4
DA:70,4
DA:71,4
DA:74,4
DA:75,4
DA:77,4
DA:78,4
DA:79,4
DA:80,4
DA:82,4
DA:83,4
DA:84,4
DA:85,4
DA:86,4
DA:88,4
DA:89,4
DA:90,4
DA:91,4
DA:92,4
DA:94,4
DA:95,4
DA:96,4
DA:97,4
DA:99,4
DA:100,4
DA:102,4
DA:150,4
DA:151,8
BRF:0
BRH:0
LF:50
LH:48
end_of_record
SF:/Users/mailund/Code/block-flow/block-traits/src/block_weave.rs
FN:53,_RINvNtCsb4HXwg7kb3v_12block_traits11block_weave15serialize_blockNtNtB2_5tests13MultiplyBlockNtNtCs7ObwQ5QRwWq_13serialization7structs20JsonStructSerializerEB4_
FN:60,_RINvNtCsb4HXwg7kb3v_12block_traits11block_weave17deserialize_blockNtNtB2_5tests13MultiplyBlockNtNtCs7ObwQ5QRwWq_13serialization7structs20JsonStructSerializerEB4_
FN:18,_RNvMNtCsb4HXwg7kb3v_12block_traits11block_weaveINtB2_25BlockSerializationPackageNtNtB2_5tests13MultiplyBlockE3newB4_
FN:32,_RNvXs_NtCsb4HXwg7kb3v_12block_traits11block_weaveINtB4_25BlockSerializationPackageNtNtB4_5tests13MultiplyBlockEINtCs82NNbgnBvdf_12weave_traits9WeaveNodeNtNtB6_12type_erasure5BlockE14input_channelsB6_
FN:35,_RNvXs_NtCsb4HXwg7kb3v_12block_traits11block_weaveINtB4_25BlockSerializationPackageNtNtB4_5tests13MultiplyBlockEINtCs82NNbgnBvdf_12weave_traits9WeaveNodeNtNtB6_12type_erasure5BlockE15output_channelsB6_
FN:39,_RNvXs_NtCsb4HXwg7kb3v_12block_traits11block_weaveINtB4_25BlockSerializationPackageNtNtB4_5tests13MultiplyBlockEINtCs82NNbgnBvdf_12weave_traits9WeaveNodeNtNtB6_12type_erasure5BlockE5weaveB6_
FN:117,_RNCNvXNtNtCsb4HXwg7kb3v_12block_traits11block_weave5testsNtB4_13MultiplyBlockNtNtB8_10block_spec9BlockSpec7execute0B8_
FN:124,_RNvNtNtCsb4HXwg7kb3v_12block_traits11block_weave5tests7keys_in
FN:131,_RNvNtNtCsb4HXwg7kb3v_12block_traits11block_weave5tests8keys_out
FN:181,_RNvNtNtCsb4HXwg7kb3v_12block_traits11block_weave5testss_31deserialize_invalid_json_errors
FN:138,_RNvNtNtCsb4HXwg7kb3v_12block_traits11block_weave5testss_35package_new_smoke_and_channel_lists
FN:190,_RNvNtNtCsb4HXwg7kb3v_12block_traits11block_weave5testss_49weave_returns_error_when_input_channel_is_missing
FN:151,_RNvNtNtCsb4HXwg7kb3v_12block_traits11block_weave5testss_56weave_node_channel_lists_are_correct_for_arbitrary_names
FN:163,_RNvNtNtCsb4HXwg7kb3v_12block_traits11block_weave5testss_62serialize_deserialize_roundtrip_preserves_init_params_and_keys
FN:112,_RNvXNtNtCsb4HXwg7kb3v_12block_traits11block_weave5testsNtB2_13MultiplyBlockNtNtB6_10block_spec9BlockSpec10init_state
FN:105,_RNvXNtNtCsb4HXwg7kb3v_12block_traits11block_weave5testsNtB2_13MultiplyBlockNtNtB6_10block_spec9BlockSpec20new_from_init_params
FN:101,_RNvXNtNtCsb4HXwg7kb3v_12block_traits11block_weave5testsNtB2_13MultiplyBlockNtNtB6_10block_spec9BlockSpec8block_id
FN:79,_RNvXs3_NtNtCsb4HXwg7kb3v_12block_traits11block_weave5testsNtB5_9InputKeysINtNtCs6JSeF52E3eC_8channels12channel_keys9InputKeysNtB5_5InputE6reader
FN:84,_RNvXsd_NtNtCsb4HXwg7kb3v_12block_traits11block_weave5testsNtB5_10OutputKeysINtNtCs6JSeF52E3eC_8channels12channel_keys10OutputKeysNtB5_6OutputE6writer
FN:32,_RNvXs_NtCsftJwm24TBQa_12block_traits11block_weaveINtB4_25BlockSerializationPackageNtNtCs8vpBMIMeQE0_6blocks12simple_order16SimpleOrderBlockEINtCs82NNbgnBvdf_12weave_traits9WeaveNodeNtNtB6_12type_erasure5BlockE14input_channelsB1m_
FN:35,_RNvXs_NtCsftJwm24TBQa_12block_traits11block_weaveINtB4_25BlockSerializationPackageNtNtCs8vpBMIMeQE0_6blocks12simple_order16SimpleOrderBlockEINtCs82NNbgnBvdf_12weave_traits9WeaveNodeNtNtB6_12type_erasure5BlockE15output_channelsB1m_
FN:39,_RNvXs_NtCsftJwm24TBQa_12block_traits11block_weaveINtB4_25BlockSerializationPackageNtNtCs8vpBMIMeQE0_6blocks12simple_order16SimpleOrderBlockEINtCs82NNbgnBvdf_12weave_traits9WeaveNodeNtNtB6_12type_erasure5BlockE5weaveB1m_
FN:32,_RNvXs_NtCsftJwm24TBQa_12block_traits11block_weaveINtB4_25BlockSerializationPackageNtNtCs8vpBMIMeQE0_6blocks5after10AfterBlockEINtCs82NNbgnBvdf_12weave_traits9WeaveNodeNtNtB6_12type_erasure5BlockE14input_channelsB1m_
FN:35,_RNvXs_NtCsftJwm24TBQa_12block_traits11block_weaveINtB4_25BlockSerializationPackageNtNtCs8vpBMIMeQE0_6blocks5after10AfterBlockEINtCs82NNbgnBvdf_12weave_traits9WeaveNodeNtNtB6_12type_erasure5BlockE15output_channelsB1m_
FN:39,_RNvXs_NtCsftJwm24TBQa_12block_traits11block_weaveINtB4_25BlockSerializationPackageNtNtCs8vpBMIMeQE0_6blocks5after10AfterBlockEINtCs82NNbgnBvdf_12weave_traits9WeaveNodeNtNtB6_12type_erasure5BlockE5weaveB1m_
FN:32,_RNvXs_NtCsftJwm24TBQa_12block_traits11block_weaveINtB4_25BlockSerializationPackageNtNtCs8vpBMIMeQE0_6blocks6delete11DeleteBlockEINtCs82NNbgnBvdf_12weave_traits9WeaveNodeNtNtB6_12type_erasure5BlockE14input_channelsB1m_
FN:35,_RNvXs_NtCsftJwm24TBQa_12block_traits11block_weaveINtB4_25BlockSerializationPackageNtNtCs8vpBMIMeQE0_6blocks6delete11DeleteBlockEINtCs82NNbgnBvdf_12weave_traits9WeaveNodeNtNtB6_12type_erasure5BlockE15output_channelsB1m_
FN:39,_RNvXs_NtCsftJwm24TBQa_12block_traits11block_weaveINtB4_25BlockSerializationPackageNtNtCs8vpBMIMeQE0_6blocks6delete11DeleteBlockEINtCs82NNbgnBvdf_12weave_traits9WeaveNodeNtNtB6_12type_erasure5BlockE5weaveB1m_
FN:53,_RINvNtCsftJwm24TBQa_12block_traits11block_weave15serialize_blockppEB4_
FN:60,_RINvNtCsftJwm24TBQa_12block_traits11block_weave17deserialize_blockppEB4_
FN:18,_RNvMNtCsftJwm24TBQa_12block_traits11block_weaveINtB2_25BlockSerializationPackagepE3newB4_
FN:32,_RNvXININtCsftJwm24TBQa_12block_traits11block_weaves_0pEINtB5_25BlockSerializationPackagepEINtCs82NNbgnBvdf_12weave_traits9WeaveNodeNtNtB7_12type_erasure5BlockE14input_channelsB7_
FN:35,_RNvXININtCsftJwm24TBQa_12block_traits11block_weaves_0pEINtB5_25BlockSerializationPackagepEINtCs82NNbgnBvdf_12weave_traits9WeaveNodeNtNtB7_12type_erasure5BlockE15output_channelsB7_
FN:39,_RNvXININtCsftJwm24TBQa_12block_traits11block_weaves_0pEINtB5_25BlockSerializationPackagepEINtCs82NNbgnBvdf_12weave_traits9WeaveNodeNtNtB7_12type_erasure5BlockE5weaveB7_
FN:32,_RNvXs_NtCsftJwm24TBQa_12block_traits11block_weaveINtB4_25BlockSerializationPackageNtNtCsk8cf5WJa4A9_6blocks12simple_order16SimpleOrderBlockEINtCs82NNbgnBvdf_12weave_traits9WeaveNodeNtNtB6_12type_erasure5BlockE14input_channelsB1m_
FN:35,_RNvXs_NtCsftJwm24TBQa_12block_traits11block_weaveINtB4_25BlockSerializationPackageNtNtCsk8cf5WJa4A9_6blocks12simple_order16SimpleOrderBlockEINtCs82NNbgnBvdf_12weave_traits9WeaveNodeNtNtB6_12type_erasure5BlockE15output_channelsB1m_
FN:39,_RNvXs_NtCsftJwm24TBQa_12block_traits11block_weaveINtB4_25BlockSerializationPackageNtNtCsk8cf5WJa4A9_6blocks12simple_order16SimpleOrderBlockEINtCs82NNbgnBvdf_12weave_traits9WeaveNodeNtNtB6_12type_erasure5BlockE5weaveB1m_
FN:32,_RNvXs_NtCsftJwm24TBQa_12block_traits11block_weaveINtB4_25BlockSerializationPackageNtNtCsk8cf5WJa4A9_6blocks5after10AfterBlockEINtCs82NNbgnBvdf_12weave_traits9WeaveNodeNtNtB6_12type_erasure5BlockE14input_channelsB1m_
FN:35,_RNvXs_NtCsftJwm24TBQa_12block_traits11block_weaveINtB4_25BlockSerializationPackageNtNtCsk8cf5WJa4A9_6blocks5after10AfterBlockEINtCs82NNbgnBvdf_12weave_traits9WeaveNodeNtNtB6_12type_erasure5BlockE15output_channelsB1m_
FN:39,_RNvXs_NtCsftJwm24TBQa_12block_traits11block_weaveINtB4_25BlockSerializationPackageNtNtCsk8cf5WJa4A9_6blocks5after10AfterBlockEINtCs82NNbgnBvdf_12weave_traits9WeaveNodeNtNtB6_12type_erasure5BlockE5weaveB1m_
FN:32,_RNvXs_NtCsftJwm24TBQa_12block_traits11block_weaveINtB4_25BlockSerializationPackageNtNtCsk8cf5WJa4A9_6blocks6delete11DeleteBlockEINtCs82NNbgnBvdf_12weave_traits9WeaveNodeNtNtB6_12type_erasure5BlockE14input_channelsB1m_
FN:35,_RNvXs_NtCsftJwm24TBQa_12block_traits11block_weaveINtB4_25BlockSerializationPackageNtNtCsk8cf5WJa4A9_6blocks6delete11DeleteBlockEINtCs82NNbgnBvdf_12weave_traits9WeaveNodeNtNtB6_12type_erasure5BlockE15output_channelsB1m_
FN:39,_RNvXs_NtCsftJwm24TBQa_12block_traits11block_weaveINtB4_25BlockSerializationPackageNtNtCsk8cf5WJa4A9_6blocks6delete11DeleteBlockEINtCs82NNbgnBvdf_12weave_traits9WeaveNodeNtNtB6_12type_erasure5BlockE5weaveB1m_
FNDA:1,_RINvNtCsb4HXwg7kb3v_12block_traits11block_weave15serialize_blockNtNtB2_5tests13MultiplyBlockNtNtCs7ObwQ5QRwWq_13serialization7structs20JsonStructSerializerEB4_
FNDA:2,_RINvNtCsb4HXwg7kb3v_12block_traits11block_weave17deserialize_blockNtNtB2_5tests13MultiplyBlockNtNtCs7ObwQ5QRwWq_13serialization7structs20JsonStructSerializerEB4_
FNDA:4,_RNvMNtCsb4HXwg7kb3v_12block_traits11block_weaveINtB2_25BlockSerializationPackageNtNtB2_5tests13MultiplyBlockE3newB4_
FNDA:3,_RNvXs_NtCsb4HXwg7kb3v_12block_traits11block_weaveINtB4_25BlockSerializationPackageNtNtB4_5tests13MultiplyBlockEINtCs82NNbgnBvdf_12weave_traits9WeaveNodeNtNtB6_12type_erasure5BlockE14input_channelsB6_
FNDA:3,_RNvXs_NtCsb4HXwg7kb3v_12block_traits11block_weaveINtB4_25BlockSerializationPackageNtNtB4_5tests13MultiplyBlockEINtCs82NNbgnBvdf_12weave_traits9WeaveNodeNtNtB6_12type_erasure5BlockE15output_channelsB6_
FNDA:1,_RNvXs_NtCsb4HXwg7kb3v_12block_traits11block_weaveINtB4_25BlockSerializationPackageNtNtB4_5tests13MultiplyBlockEINtCs82NNbgnBvdf_12weave_traits9WeaveNodeNtNtB6_12type_erasure5BlockE5weaveB6_
FNDA:0,_RNCNvXNtNtCsb4HXwg7kb3v_12block_traits11block_weave5testsNtB4_13MultiplyBlockNtNtB8_10block_spec9BlockSpec7execute0B8_
FNDA:4,_RNvNtNtCsb4HXwg7kb3v_12block_traits11block_weave5tests7keys_in
FNDA:4,_RNvNtNtCsb4HXwg7kb3v_12block_traits11block_weave5tests8keys_out
FNDA:1,_RNvNtNtCsb4HXwg7kb3v_12block_traits11block_weave5testss_31deserialize_invalid_json_errors
FNDA:1,_RNvNtNtCsb4HXwg7kb3v_12block_traits11block_weave5testss_35package_new_smoke_and_channel_lists
FNDA:1,_RNvNtNtCsb4HXwg7kb3v_12block_traits11block_weave5testss_49weave_returns_error_when_input_channel_is_missing
FNDA:1,_RNvNtNtCsb4HXwg7kb3v_12block_traits11block_weave5testss_56weave_node_channel_lists_are_correct_for_arbitrary_names
FNDA:1,_RNvNtNtCsb4HXwg7kb3v_12block_traits11block_weave5testss_62serialize_deserialize_roundtrip_preserves_init_params_and_keys
FNDA:0,_RNvXNtNtCsb4HXwg7kb3v_12block_traits11block_weave5testsNtB2_13MultiplyBlockNtNtB6_10block_spec9BlockSpec10init_state
FNDA:1,_RNvXNtNtCsb4HXwg7kb3v_12block_traits11block_weave5testsNtB2_13MultiplyBlockNtNtB6_10block_spec9BlockSpec20new_from_init_params
FNDA:0,_RNvXNtNtCsb4HXwg7kb3v_12block_traits11block_weave5testsNtB2_13MultiplyBlockNtNtB6_10block_spec9BlockSpec8block_id
FNDA:1,_RNvXs3_NtNtCsb4HXwg7kb3v_12block_traits11block_weave5testsNtB5_9InputKeysINtNtCs6JSeF52E3eC_8channels12channel_keys9InputKeysNtB5_5InputE6reader
FNDA:0,_RNvXsd_NtNtCsb4HXwg7kb3v_12block_traits11block_weave5testsNtB5_10OutputKeysINtNtCs6JSeF52E3eC_8channels12channel_keys10OutputKeysNtB5_6OutputE6writer
FNDA:0,_RNvXs_NtCsftJwm24TBQa_12block_traits11block_weaveINtB4_25BlockSerializationPackageNtNtCs8vpBMIMeQE0_6blocks12simple_order16SimpleOrderBlockEINtCs82NNbgnBvdf_12weave_traits9WeaveNodeNtNtB6_12type_erasure5BlockE14input_channelsB1m_
FNDA:0,_RNvXs_NtCsftJwm24TBQa_12block_traits11block_weaveINtB4_25BlockSerializationPackageNtNtCs8vpBMIMeQE0_6blocks12simple_order16SimpleOrderBlockEINtCs82NNbgnBvdf_12weave_traits9WeaveNodeNtNtB6_12type_erasure5BlockE15output_channelsB1m_
FNDA:0,_RNvXs_NtCsftJwm24TBQa_12block_traits11block_weaveINtB4_25BlockSerializationPackageNtNtCs8vpBMIMeQE0_6blocks12simple_order16SimpleOrderBlockEINtCs82NNbgnBvdf_12weave_traits9WeaveNodeNtNtB6_12type_erasure5BlockE5weaveB1m_
FNDA:0,_RNvXs_NtCsftJwm24TBQa_12block_traits11block_weaveINtB4_25BlockSerializationPackageNtNtCs8vpBMIMeQE0_6blocks5after10AfterBlockEINtCs82NNbgnBvdf_12weave_traits9WeaveNodeNtNtB6_12type_erasure5BlockE14input_channelsB1m_
FNDA:0,_RNvXs_NtCsftJwm24TBQa_12block_traits11block_weaveINtB4_25BlockSerializationPackageNtNtCs8vpBMIMeQE0_6blocks5after10AfterBlockEINtCs82NNbgnBvdf_12weave_traits9WeaveNodeNtNtB6_12type_erasure5BlockE15output_channelsB1m_
FNDA:1,_RNvXs_NtCsftJwm24TBQa_12block_traits11block_weaveINtB4_25BlockSerializationPackageNtNtCs8vpBMIMeQE0_6blocks5after10AfterBlockEINtCs82NNbgnBvdf_12weave_traits9WeaveNodeNtNtB6_12type_erasure5BlockE5weaveB1m_
FNDA:0,_RNvXs_NtCsftJwm24TBQa_12block_traits11block_weaveINtB4_25BlockSerializationPackageNtNtCs8vpBMIMeQE0_6blocks6delete11DeleteBlockEINtCs82NNbgnBvdf_12weave_traits9WeaveNodeNtNtB6_12type_erasure5BlockE14input_channelsB1m_
FNDA:0,_RNvXs_NtCsftJwm24TBQa_12block_traits11block_weaveINtB4_25BlockSerializationPackageNtNtCs8vpBMIMeQE0_6blocks6delete11DeleteBlockEINtCs82NNbgnBvdf_12weave_traits9WeaveNodeNtNtB6_12type_erasure5BlockE15output_channelsB1m_
FNDA:1,_RNvXs_NtCsftJwm24TBQa_12block_traits11block_weaveINtB4_25BlockSerializationPackageNtNtCs8vpBMIMeQE0_6blocks6delete11DeleteBlockEINtCs82NNbgnBvdf_12weave_traits9WeaveNodeNtNtB6_12type_erasure5BlockE5weaveB1m_
FNDA:0,_RINvNtCsftJwm24TBQa_12block_traits11block_weave15serialize_blockppEB4_
FNDA:0,_RINvNtCsftJwm24TBQa_12block_traits11block_weave17deserialize_blockppEB4_
FNDA:0,_RNvMNtCsftJwm24TBQa_12block_traits11block_weaveINtB2_25BlockSerializationPackagepE3newB4_
FNDA:0,_RNvXININtCsftJwm24TBQa_12block_traits11block_weaves_0pEINtB5_25BlockSerializationPackagepEINtCs82NNbgnBvdf_12weave_traits9WeaveNodeNtNtB7_12type_erasure5BlockE14input_channelsB7_
FNDA:0,_RNvXININtCsftJwm24TBQa_12block_traits11block_weaves_0pEINtB5_25BlockSerializationPackagepEINtCs82NNbgnBvdf_12weave_traits9WeaveNodeNtNtB7_12type_erasure5BlockE15output_channelsB7_
FNDA:0,_RNvXININtCsftJwm24TBQa_12block_traits11block_weaves_0pEINtB5_25BlockSerializationPackagepEINtCs82NNbgnBvdf_12weave_traits9WeaveNodeNtNtB7_12type_erasure5BlockE5weaveB7_
FNDA:1,_RNvXs_NtCsftJwm24TBQa_12block_traits11block_weaveINtB4_25BlockSerializationPackageNtNtCsk8cf5WJa4A9_6blocks12simple_order16SimpleOrderBlockEINtCs82NNbgnBvdf_12weave_traits9WeaveNodeNtNtB6_12type_erasure5BlockE14input_channelsB1m_
FNDA:1,_RNvXs_NtCsftJwm24TBQa_12block_traits11block_weaveINtB4_25BlockSerializationPackageNtNtCsk8cf5WJa4A9_6blocks12simple_order16SimpleOrderBlockEINtCs82NNbgnBvdf_12weave_traits9WeaveNodeNtNtB6_12type_erasure5BlockE15output_channelsB1m_
FNDA:1,_RNvXs_NtCsftJwm24TBQa_12block_traits11block_weaveINtB4_25BlockSerializationPackageNtNtCsk8cf5WJa4A9_6blocks12simple_order16SimpleOrderBlockEINtCs82NNbgnBvdf_12weave_traits9WeaveNodeNtNtB6_12type_erasure5BlockE5weaveB1m_
FNDA:1,_RNvXs_NtCsftJwm24TBQa_12block_traits11block_weaveINtB4_25BlockSerializationPackageNtNtCsk8cf5WJa4A9_6blocks5after10AfterBlockEINtCs82NNbgnBvdf_12weave_traits9WeaveNodeNtNtB6_12type_erasure5BlockE14input_channelsB1m_
FNDA:1,_RNvXs_NtCsftJwm24TBQa_12block_traits11block_weaveINtB4_25BlockSerializationPackageNtNtCsk8cf5WJa4A9_6blocks5after10AfterBlockEINtCs82NNbgnBvdf_12weave_traits9WeaveNodeNtNtB6_12type_erasure5BlockE15output_channelsB1m_
FNDA:1,_RNvXs_NtCsftJwm24TBQa_12block_traits11block_weaveINtB4_25BlockSerializationPackageNtNtCsk8cf5WJa4A9_6blocks5after10AfterBlockEINtCs82NNbgnBvdf_12weave_traits9WeaveNodeNtNtB6_12type_erasure5BlockE5weaveB1m_
FNDA:0,_RNvXs_NtCsftJwm24TBQa_12block_traits11block_weaveINtB4_25BlockSerializationPackageNtNtCsk8cf5WJa4A9_6blocks6delete11DeleteBlockEINtCs82NNbgnBvdf_12weave_traits9WeaveNodeNtNtB6_12type_erasure5BlockE14input_channelsB1m_
FNDA:0,_RNvXs_NtCsftJwm24TBQa_12block_traits11block_weaveINtB4_25BlockSerializationPackageNtNtCsk8cf5WJa4A9_6blocks6delete11DeleteBlockEINtCs82NNbgnBvdf_12weave_traits9WeaveNodeNtNtB6_12type_erasure5BlockE15output_channelsB1m_
FNDA:0,_RNvXs_NtCsftJwm24TBQa_12block_traits11block_weaveINtB4_25BlockSerializationPackageNtNtCsk8cf5WJa4A9_6blocks6delete11DeleteBlockEINtCs82NNbgnBvdf_12weave_traits9WeaveNodeNtNtB6_12type_erasure5BlockE5weaveB1m_
FNF:19
FNH:15
DA:18,4
DA:19,4
DA:20,4
DA:21,4
DA:22,4
DA:23,4
DA:24,4
DA:25,4
DA:26,4
DA:27,4
DA:28,4
DA:32,5
DA:33,5
DA:34,5
DA:35,5
DA:36,5
DA:37,5
DA:39,5
DA:40,5
DA:42,5
DA:44,5
DA:45,4
DA:47,4
DA:49,4
DA:50,5
DA:53,1
DA:54,1
DA:55,1
DA:56,1
DA:57,1
DA:58,1
DA:60,2
DA:61,2
DA:62,2
DA:63,2
DA:64,2
DA:65,2
DA:79,1
DA:84,0
DA:101,0
DA:102,0
DA:103,0
DA:105,1
DA:106,1
DA:107,1
DA:108,1
DA:109,1
DA:110,1
DA:112,0
DA:113,0
DA:114,0
DA:117,0
DA:118,0
DA:119,0
DA:120,0
DA:124,4
DA:126,4
DA:127,4
DA:128,4
DA:129,4
DA:131,4
DA:132,4
DA:133,4
DA:134,4
DA:135,4
DA:138,1
DA:139,1
DA:140,1
DA:141,1
DA:142,1
DA:145,1
DA:146,1
DA:147,1
DA:148,1
DA:151,1
DA:152,1
DA:153,1
DA:154,1
DA:155,1
DA:158,1
DA:159,1
DA:160,1
DA:163,1
DA:164,1
DA:165,1
DA:166,1
DA:167,1
DA:170,1
DA:172,1
DA:173,1
DA:175,1
DA:176,1
DA:177,1
DA:178,1
DA:181,1
DA:182,1
DA:183,1
DA:185,1
DA:186,1
DA:187,1
DA:190,1
DA:193,1
DA:194,1
DA:195,1
DA:196,1
DA:199,1
DA:200,1
DA:202,1
DA:203,1
BRF:0
BRH:0
LF:109
LH:98
end_of_record
SF:/Users/mailund/Code/block-flow/block-traits/src/lib.rs
FN:62,_RNvXs0_NtCsb4HXwg7kb3v_12block_traits10test_typesINtB5_10MockReaderNtB5_9TestInputEINtNtCs6JSeF52E3eC_8channels12channel_keys6ReaderB13_E4readB7_
FN:72,_RNvXs1_NtCsb4HXwg7kb3v_12block_traits10test_typesINtB5_10MockWriterNtB5_10TestOutputEINtNtCs6JSeF52E3eC_8channels12channel_keys6WriterB13_E5writeB7_
FN:312,_RNvNtCsb4HXwg7kb3v_12block_traits5testss_22test_accumulator_block
FN:171,_RNvNtCsb4HXwg7kb3v_12block_traits5testss_22test_execution_context
FN:254,_RNvNtCsb4HXwg7kb3v_12block_traits5testss_22test_wrapped_block_new
FN:195,_RNvNtCsb4HXwg7kb3v_12block_traits5testss_23test_block_spec_execute
FN:177,_RNvNtCsb4HXwg7kb3v_12block_traits5testss_24test_block_spec_block_id
FN:188,_RNvNtCsb4HXwg7kb3v_12block_traits5testss_26test_block_spec_init_state
FN:183,_RNvNtCsb4HXwg7kb3v_12block_traits5testss_36test_block_spec_new_from_init_params
FN:208,_RNvNtCsb4HXwg7kb3v_12block_traits5testss_38test_block_spec_execute_multiple_times
FN:223,_RNvNtCsb4HXwg7kb3v_12block_traits5testss_54test_channel_keys_and_reader_writer_traits_are_invoked
FN:304,_RNvNtCsb4HXwg7kb3v_12block_traits5testss_56test_accumulator_block_block_id_and_new_from_init_params
FN:287,_RNvXs_NtCsb4HXwg7kb3v_12block_traits5testsNtB4_16AccumulatorBlockNtNtB6_10block_spec9BlockSpec10init_state
FN:283,_RNvXs_NtCsb4HXwg7kb3v_12block_traits5testsNtB4_16AccumulatorBlockNtNtB6_10block_spec9BlockSpec20new_from_init_params
FN:291,_RNvXs_NtCsb4HXwg7kb3v_12block_traits5testsNtB4_16AccumulatorBlockNtNtB6_10block_spec9BlockSpec7execute
FN:279,_RNvXs_NtCsb4HXwg7kb3v_12block_traits5testsNtB4_16AccumulatorBlockNtNtB6_10block_spec9BlockSpec8block_id
FN:81,_RNvXs4_NtCsb4HXwg7kb3v_12block_traits10test_typesNtB5_13TestInputKeysNtNtCs6JSeF52E3eC_8channels12channel_keys11ChannelKeys13channel_names
FN:89,_RNvXs5_NtCsb4HXwg7kb3v_12block_traits10test_typesNtB5_13TestInputKeysINtNtCs6JSeF52E3eC_8channels12channel_keys9InputKeysNtB5_9TestInputE6reader
FN:97,_RNvXs6_NtCsb4HXwg7kb3v_12block_traits10test_typesNtB5_14TestOutputKeysNtNtCs6JSeF52E3eC_8channels12channel_keys11ChannelKeys13channel_names
FN:105,_RNvXs7_NtCsb4HXwg7kb3v_12block_traits10test_typesNtB5_14TestOutputKeysINtNtCs6JSeF52E3eC_8channels12channel_keys10OutputKeysNtB5_10TestOutputE6writer
FN:111,_RNvXs7_NtCsb4HXwg7kb3v_12block_traits10test_typesNtB5_14TestOutputKeysINtNtCs6JSeF52E3eC_8channels12channel_keys10OutputKeysNtB5_10TestOutputE8register
FN:144,_RNvXsb_NtCsb4HXwg7kb3v_12block_traits10test_typesNtB5_12DoublerBlockNtNtB7_10block_spec9BlockSpec10init_state
FN:140,_RNvXsb_NtCsb4HXwg7kb3v_12block_traits10test_typesNtB5_12DoublerBlockNtNtB7_10block_spec9BlockSpec20new_from_init_params
FN:148,_RNvXsb_NtCsb4HXwg7kb3v_12block_traits10test_typesNtB5_12DoublerBlockNtNtB7_10block_spec9BlockSpec7execute
FN:136,_RNvXsb_NtCsb4HXwg7kb3v_12block_traits10test_typesNtB5_12DoublerBlockNtNtB7_10block_spec9BlockSpec8block_id
FNDA:7,_RNvXs0_NtCsb4HXwg7kb3v_12block_traits10test_typesINtB5_10MockReaderNtB5_9TestInputEINtNtCs6JSeF52E3eC_8channels12channel_keys6ReaderB13_E4readB7_
FNDA:7,_RNvXs1_NtCsb4HXwg7kb3v_12block_traits10test_typesINtB5_10MockWriterNtB5_10TestOutputEINtNtCs6JSeF52E3eC_8channels12channel_keys6WriterB13_E5writeB7_
FNDA:1,_RNvNtCsb4HXwg7kb3v_12block_traits5testss_22test_accumulator_block
FNDA:1,_RNvNtCsb4HXwg7kb3v_12block_traits5testss_22test_execution_context
FNDA:1,_RNvNtCsb4HXwg7kb3v_12block_traits5testss_22test_wrapped_block_new
FNDA:1,_RNvNtCsb4HXwg7kb3v_12block_traits5testss_23test_block_spec_execute
FNDA:1,_RNvNtCsb4HXwg7kb3v_12block_traits5testss_24test_block_spec_block_id
FNDA:1,_RNvNtCsb4HXwg7kb3v_12block_traits5testss_26test_block_spec_init_state
FNDA:1,_RNvNtCsb4HXwg7kb3v_12block_traits5testss_36test_block_spec_new_from_init_params
FNDA:1,_RNvNtCsb4HXwg7kb3v_12block_traits5testss_38test_block_spec_execute_multiple_times
FNDA:1,_RNvNtCsb4HXwg7kb3v_12block_traits5testss_54test_channel_keys_and_reader_writer_traits_are_invoked
FNDA:1,_RNvNtCsb4HXwg7kb3v_12block_traits5testss_56test_accumulator_block_block_id_and_new_from_init_params
FNDA:1,_RNvXs_NtCsb4HXwg7kb3v_12block_traits5testsNtB4_16AccumulatorBlockNtNtB6_10block_spec9BlockSpec10init_state
FNDA:1,_RNvXs_NtCsb4HXwg7kb3v_12block_traits5testsNtB4_16AccumulatorBlockNtNtB6_10block_spec9BlockSpec20new_from_init_params
FNDA:3,_RNvXs_NtCsb4HXwg7kb3v_12block_traits5testsNtB4_16AccumulatorBlockNtNtB6_10block_spec9BlockSpec7execute
FNDA:1,_RNvXs_NtCsb4HXwg7kb3v_12block_traits5testsNtB4_16AccumulatorBlockNtNtB6_10block_spec9BlockSpec8block_id
FNDA:1,_RNvXs4_NtCsb4HXwg7kb3v_12block_traits10test_typesNtB5_13TestInputKeysNtNtCs6JSeF52E3eC_8channels12channel_keys11ChannelKeys13channel_names
FNDA:1,_RNvXs5_NtCsb4HXwg7kb3v_12block_traits10test_typesNtB5_13TestInputKeysINtNtCs6JSeF52E3eC_8channels12channel_keys9InputKeysNtB5_9TestInputE6reader
FNDA:1,_RNvXs6_NtCsb4HXwg7kb3v_12block_traits10test_typesNtB5_14TestOutputKeysNtNtCs6JSeF52E3eC_8channels12channel_keys11ChannelKeys13channel_names
FNDA:1,_RNvXs7_NtCsb4HXwg7kb3v_12block_traits10test_typesNtB5_14TestOutputKeysINtNtCs6JSeF52E3eC_8channels12channel_keys10OutputKeysNtB5_10TestOutputE6writer
FNDA:1,_RNvXs7_NtCsb4HXwg7kb3v_12block_traits10test_typesNtB5_14TestOutputKeysINtNtCs6JSeF52E3eC_8channels12channel_keys10OutputKeysNtB5_10TestOutputE8register
FNDA:5,_RNvXsb_NtCsb4HXwg7kb3v_12block_traits10test_typesNtB5_12DoublerBlockNtNtB7_10block_spec9BlockSpec10init_state
FNDA:1,_RNvXsb_NtCsb4HXwg7kb3v_12block_traits10test_typesNtB5_12DoublerBlockNtNtB7_10block_spec9BlockSpec20new_from_init_params
FNDA:10,_RNvXsb_NtCsb4HXwg7kb3v_12block_traits10test_typesNtB5_12DoublerBlockNtNtB7_10block_spec9BlockSpec7execute
FNDA:7,_RNvXsb_NtCsb4HXwg7kb3v_12block_traits10test_typesNtB5_12DoublerBlockNtNtB7_10block_spec9BlockSpec8block_id
FNF:25
FNH:25
DA:62,7
DA:63,7
DA:64,7
DA:72,7
DA:73,7
DA:74,7
DA:81,1
DA:82,1
DA:83,1
DA:89,1
DA:90,1
DA:91,1
DA:92,1
DA:93,1
DA:97,1
DA:98,1
DA:99,1
DA:105,1
DA:106,1
DA:107,1
DA:108,1
DA:109,1
DA:111,1
DA:113,1
DA:136,7
DA:137,7
DA:138,7
DA:140,1
DA:141,1
DA:142,1
DA:144,5
DA:145,5
DA:146,5
DA:148,10
DA:149,10
DA:150,10
DA:151,10
DA:152,10
DA:153,10
DA:154,10
DA:155,10
DA:156,10
DA:157,10
DA:158,10
DA:171,1
DA:172,1
DA:173,1
DA:174,1
DA:177,1
DA:178,1
DA:179,1
DA:180,1
DA:183,1
DA:184,1
DA:185,1
DA:188,1
DA:189,1
DA:190,1
DA:191,1
DA:192,1
DA:195,1
DA:196,1
DA:197,1
DA:198,1
DA:199,1
DA:201,1
DA:203,1
DA:204,1
DA:205,1
DA:208,1
DA:209,1
DA:210,1
DA:211,1
DA:212,1
DA:214,4
DA:215,3
DA:216,3
DA:217,3
DA:218,3
DA:220,1
DA:223,1
DA:225,1
DA:226,1
DA:227,1
DA:228,1
DA:231,1
DA:234,1
DA:235,1
DA:236,1
DA:237,1
DA:240,1
DA:243,1
DA:244,1
DA:245,1
DA:248,1
DA:249,1
DA:250,1
DA:251,1
DA:254,1
DA:255,1
DA:256,1
DA:257,1
DA:258,1
DA:259,1
DA:260,1
DA:261,1
DA:263,1
DA:264,1
DA:265,1
DA:279,1
DA:280,1
DA:281,1
DA:283,1
DA:284,1
DA:285,1
DA:287,1
DA:288,1
DA:289,1
DA:291,3
DA:292,3
DA:293,3
DA:294,3
DA:295,3
DA:296,3
DA:297,3
DA:298,3
DA:299,3
DA:300,3
DA:304,1
DA:305,1
DA:306,1
DA:308,1
DA:309,1
DA:312,1
DA:313,1
DA:314,1
DA:315,1
DA:317,1
DA:318,1
DA:319,1
DA:320,1
DA:323,1
DA:325,3
DA:326,3
DA:327,3
DA:328,3
DA:329,3
DA:331,1
BRF:0
BRH:0
LF:148
LH:148
end_of_record
SF:/Users/mailund/Code/block-flow/block-traits/src/type_erasure.rs
FN:132,_RNvNtNtCsb4HXwg7kb3v_12block_traits12type_erasure5tests10input_keys
FN:138,_RNvNtNtCsb4HXwg7kb3v_12block_traits12type_erasure5tests11output_keys
FN:250,_RNvNtNtCsb4HXwg7kb3v_12block_traits12type_erasure5testss_26test_wrapped_block_execute
FN:195,_RNvNtNtCsb4HXwg7kb3v_12block_traits12type_erasure5testss_33block_wrapper_delegates_correctly
FN:272,_RNvNtNtCsb4HXwg7kb3v_12block_traits12type_erasure5testss_38test_multiple_wrapped_block_executions
FN:147,_RNvNtNtCsb4HXwg7kb3v_12block_traits12type_erasure5testss_40encapsulated_block_new_initializes_state
FN:222,_RNvNtNtCsb4HXwg7kb3v_12block_traits12type_erasure5testss_41state_is_updated_across_multiple_executes
FN:167,_RNvNtNtCsb4HXwg7kb3v_12block_traits12type_erasure5testss_59type_erased_block_execute_writes_output_and_returns_intents
FN:124,_RNCNvXNtNtNtCsb4HXwg7kb3v_12block_traits12type_erasure5tests10test_blockNtB4_9TestBlockNtNtBa_10block_spec9BlockSpec7execute0Ba_
FN:115,_RNvXNtNtNtCsb4HXwg7kb3v_12block_traits12type_erasure5tests10test_blockNtB2_9TestBlockNtNtB8_10block_spec9BlockSpec20new_from_init_params
FN:78,_RNvMs0_NtCsb4HXwg7kb3v_12block_traits12type_erasureNtB5_5Block7execute
FN:74,_RNvMs0_NtCsb4HXwg7kb3v_12block_traits12type_erasureNtB5_5Block8block_id
FN:119,_RNvXNtNtNtCsb4HXwg7kb3v_12block_traits12type_erasure5tests10test_blockNtB2_9TestBlockNtNtB8_10block_spec9BlockSpec10init_state
FN:111,_RNvXNtNtNtCsb4HXwg7kb3v_12block_traits12type_erasure5tests10test_blockNtB2_9TestBlockNtNtB8_10block_spec9BlockSpec8block_id
FN:95,_RNvXs7_NtNtNtCsb4HXwg7kb3v_12block_traits12type_erasure5tests10test_blockNtB5_9InputKeysINtNtCs6JSeF52E3eC_8channels12channel_keys9InputKeysNtB5_5InputE6reader
FN:100,_RNvXsh_NtNtNtCsb4HXwg7kb3v_12block_traits12type_erasure5tests10test_blockNtB5_10OutputKeysINtNtCs6JSeF52E3eC_8channels12channel_keys10OutputKeysNtB5_6OutputE6writer
FN:62,_RINvMs0_NtCsb4HXwg7kb3v_12block_traits12type_erasureNtB6_5Block3newNtNtNtB6_5tests10test_block9TestBlockEB8_
FN:62,_RINvMs0_NtCsb4HXwg7kb3v_12block_traits12type_erasureNtB6_5Block3newNtNtNtB8_11block_weave5tests13MultiplyBlockEB8_
FN:13,_RNvMNtCsb4HXwg7kb3v_12block_traits12type_erasureINtB2_17EncapsulatedBlockNtNtB4_10test_types12DoublerBlockE3newB4_
FN:13,_RNvMNtCsb4HXwg7kb3v_12block_traits12type_erasureINtB2_17EncapsulatedBlockNtNtNtB2_5tests10test_block9TestBlockE3newB4_
FN:13,_RNvMNtCsb4HXwg7kb3v_12block_traits12type_erasureINtB2_17EncapsulatedBlockNtNtNtB4_11block_weave5tests13MultiplyBlockE3newB4_
FN:40,_RNvXs_NtCsb4HXwg7kb3v_12block_traits12type_erasureINtB4_17EncapsulatedBlockNtNtB6_10test_types12DoublerBlockENtB4_15TypeErasedBlock7executeB6_
FN:40,_RNvXs_NtCsb4HXwg7kb3v_12block_traits12type_erasureINtB4_17EncapsulatedBlockNtNtNtB4_5tests10test_block9TestBlockENtB4_15TypeErasedBlock7executeB6_
FN:36,_RNvXs_NtCsb4HXwg7kb3v_12block_traits12type_erasureINtB4_17EncapsulatedBlockNtNtNtB4_5tests10test_block9TestBlockENtB4_15TypeErasedBlock8block_idB6_
FN:40,_RNvXs_NtCsb4HXwg7kb3v_12block_traits12type_erasureINtB4_17EncapsulatedBlockNtNtNtB6_11block_weave5tests13MultiplyBlockENtB4_15TypeErasedBlock7executeB6_
FN:36,_RNvXs_NtCsb4HXwg7kb3v_12block_traits12type_erasureINtB4_17EncapsulatedBlockNtNtNtB6_11block_weave5tests13MultiplyBlockENtB4_15TypeErasedBlock8block_idB6_
FN:62,_RINvMs0_NtCsftJwm24TBQa_12block_traits12type_erasureNtB6_5Block3newNtNtCs8vpBMIMeQE0_6blocks12simple_order16SimpleOrderBlockEB17_
FN:62,_RINvMs0_NtCsftJwm24TBQa_12block_traits12type_erasureNtB6_5Block3newNtNtCs8vpBMIMeQE0_6blocks5after10AfterBlockEB17_
FN:62,_RINvMs0_NtCsftJwm24TBQa_12block_traits12type_erasureNtB6_5Block3newNtNtCs8vpBMIMeQE0_6blocks6delete11DeleteBlockEB17_
FN:13,_RNvMNtCsftJwm24TBQa_12block_traits12type_erasureINtB2_17EncapsulatedBlockNtNtCs8vpBMIMeQE0_6blocks12simple_order16SimpleOrderBlockE3newB1d_
FN:13,_RNvMNtCsftJwm24TBQa_12block_traits12type_erasureINtB2_17EncapsulatedBlockNtNtCs8vpBMIMeQE0_6blocks5after10AfterBlockE3newB1d_
FN:13,_RNvMNtCsftJwm24TBQa_12block_traits12type_erasureINtB2_17EncapsulatedBlockNtNtCs8vpBMIMeQE0_6blocks6delete11DeleteBlockE3newB1d_
FN:40,_RNvXs_NtCsftJwm24TBQa_12block_traits12type_erasureINtB4_17EncapsulatedBlockNtNtCs8vpBMIMeQE0_6blocks12simple_order16SimpleOrderBlockENtB4_15TypeErasedBlock7executeB1f_
FN:36,_RNvXs_NtCsftJwm24TBQa_12block_traits12type_erasureINtB4_17EncapsulatedBlockNtNtCs8vpBMIMeQE0_6blocks12simple_order16SimpleOrderBlockENtB4_15TypeErasedBlock8block_idB1f_
FN:40,_RNvXs_NtCsftJwm24TBQa_12block_traits12type_erasureINtB4_17EncapsulatedBlockNtNtCs8vpBMIMeQE0_6blocks5after10AfterBlockENtB4_15TypeErasedBlock7executeB1f_
FN:36,_RNvXs_NtCsftJwm24TBQa_12block_traits12type_erasureINtB4_17EncapsulatedBlockNtNtCs8vpBMIMeQE0_6blocks5after10AfterBlockENtB4_15TypeErasedBlock8block_idB1f_
FN:40,_RNvXs_NtCsftJwm24TBQa_12block_traits12type_erasureINtB4_17EncapsulatedBlockNtNtCs8vpBMIMeQE0_6blocks6delete11DeleteBlockENtB4_15TypeErasedBlock7executeB1f_
FN:36,_RNvXs_NtCsftJwm24TBQa_12block_traits12type_erasureINtB4_17EncapsulatedBlockNtNtCs8vpBMIMeQE0_6blocks6delete11DeleteBlockENtB4_15TypeErasedBlock8block_idB1f_
FN:78,_RNvMs0_NtCsftJwm24TBQa_12block_traits12type_erasureNtB5_5Block7execute
FN:74,_RNvMs0_NtCsftJwm24TBQa_12block_traits12type_erasureNtB5_5Block8block_id
FN:62,_RINvMs0_NtCsftJwm24TBQa_12block_traits12type_erasureNtB6_5Block3newpEB8_
FN:13,_RNvMNtCsftJwm24TBQa_12block_traits12type_erasureINtB2_17EncapsulatedBlockpE3newB4_
FN:40,_RNvXININtCsftJwm24TBQa_12block_traits12type_erasures_0pEINtB5_17EncapsulatedBlockpENtB5_15TypeErasedBlock7executeB7_
FN:36,_RNvXININtCsftJwm24TBQa_12block_traits12type_erasures_0pEINtB5_17EncapsulatedBlockpENtB5_15TypeErasedBlock8block_idB7_
FN:62,_RINvMs0_NtCsftJwm24TBQa_12block_traits12type_erasureNtB6_5Block3newNtNtCsk8cf5WJa4A9_6blocks12simple_order16SimpleOrderBlockEB17_
FN:62,_RINvMs0_NtCsftJwm24TBQa_12block_traits12type_erasureNtB6_5Block3newNtNtCsk8cf5WJa4A9_6blocks5after10AfterBlockEB17_
FN:62,_RINvMs0_NtCsftJwm24TBQa_12block_traits12type_erasureNtB6_5Block3newNtNtCsk8cf5WJa4A9_6blocks6delete11DeleteBlockEB17_
FN:13,_RNvMNtCsftJwm24TBQa_12block_traits12type_erasureINtB2_17EncapsulatedBlockNtNtCsk8cf5WJa4A9_6blocks12simple_order16SimpleOrderBlockE3newB1d_
FN:13,_RNvMNtCsftJwm24TBQa_12block_traits12type_erasureINtB2_17EncapsulatedBlockNtNtCsk8cf5WJa4A9_6blocks5after10AfterBlockE3newB1d_
FN:13,_RNvMNtCsftJwm24TBQa_12block_traits12type_erasureINtB2_17EncapsulatedBlockNtNtCsk8cf5WJa4A9_6blocks6delete11DeleteBlockE3newB1d_
FN:40,_RNvXs_NtCsftJwm24TBQa_12block_traits12type_erasureINtB4_17EncapsulatedBlockNtNtCsk8cf5WJa4A9_6blocks12simple_order16SimpleOrderBlockENtB4_15TypeErasedBlock7executeB1f_
FN:36,_RNvXs_NtCsftJwm24TBQa_12block_traits12type_erasureINtB4_17EncapsulatedBlockNtNtCsk8cf5WJa4A9_6blocks12simple_order16SimpleOrderBlockENtB4_15TypeErasedBlock8block_idB1f_
FN:40,_RNvXs_NtCsftJwm24TBQa_12block_traits12type_erasureINtB4_17EncapsulatedBlockNtNtCsk8cf5WJa4A9_6blocks5after10AfterBlockENtB4_15TypeErasedBlock7executeB1f_
FN:36,_RNvXs_NtCsftJwm24TBQa_12block_traits12type_erasureINtB4_17EncapsulatedBlockNtNtCsk8cf5WJa4A9_6blocks5after10AfterBlockENtB4_15TypeErasedBlock8block_idB1f_
FN:40,_RNvXs_NtCsftJwm24TBQa_12block_traits12type_erasureINtB4_17EncapsulatedBlockNtNtCsk8cf5WJa4A9_6blocks6delete11DeleteBlockENtB4_15TypeErasedBlock7executeB1f_
FN:36,_RNvXs_NtCsftJwm24TBQa_12block_traits12type_erasureINtB4_17EncapsulatedBlockNtNtCsk8cf5WJa4A9_6blocks6delete11DeleteBlockENtB4_15TypeErasedBlock8block_idB1f_
FNDA:4,_RNvNtNtCsb4HXwg7kb3v_12block_traits12type_erasure5tests10input_keys
FNDA:4,_RNvNtNtCsb4HXwg7kb3v_12block_traits12type_erasure5tests11output_keys
FNDA:1,_RNvNtNtCsb4HXwg7kb3v_12block_traits12type_erasure5testss_26test_wrapped_block_execute
FNDA:1,_RNvNtNtCsb4HXwg7kb3v_12block_traits12type_erasure5testss_33block_wrapper_delegates_correctly
FNDA:1,_RNvNtNtCsb4HXwg7kb3v_12block_traits12type_erasure5testss_38test_multiple_wrapped_block_executions
FNDA:1,_RNvNtNtCsb4HXwg7kb3v_12block_traits12type_erasure5testss_40encapsulated_block_new_initializes_state
FNDA:1,_RNvNtNtCsb4HXwg7kb3v_12block_traits12type_erasure5testss_41state_is_updated_across_multiple_executes
FNDA:1,_RNvNtNtCsb4HXwg7kb3v_12block_traits12type_erasure5testss_59type_erased_block_execute_writes_output_and_returns_intents
FNDA:4,_RNCNvXNtNtNtCsb4HXwg7kb3v_12block_traits12type_erasure5tests10test_blockNtB4_9TestBlockNtNtBa_10block_spec9BlockSpec7execute0Ba_
FNDA:0,_RNvXNtNtNtCsb4HXwg7kb3v_12block_traits12type_erasure5tests10test_blockNtB2_9TestBlockNtNtB8_10block_spec9BlockSpec20new_from_init_params
FNDA:1,_RNvMs0_NtCsb4HXwg7kb3v_12block_traits12type_erasureNtB5_5Block7execute
FNDA:1,_RNvMs0_NtCsb4HXwg7kb3v_12block_traits12type_erasureNtB5_5Block8block_id
FNDA:4,_RNvXNtNtNtCsb4HXwg7kb3v_12block_traits12type_erasure5tests10test_blockNtB2_9TestBlockNtNtB8_10block_spec9BlockSpec10init_state
FNDA:6,_RNvXNtNtNtCsb4HXwg7kb3v_12block_traits12type_erasure5tests10test_blockNtB2_9TestBlockNtNtB8_10block_spec9BlockSpec8block_id
FNDA:0,_RNvXs7_NtNtNtCsb4HXwg7kb3v_12block_traits12type_erasure5tests10test_blockNtB5_9InputKeysINtNtCs6JSeF52E3eC_8channels12channel_keys9InputKeysNtB5_5InputE6reader
FNDA:0,_RNvXsh_NtNtNtCsb4HXwg7kb3v_12block_traits12type_erasure5tests10test_blockNtB5_10OutputKeysINtNtCs6JSeF52E3eC_8channels12channel_keys10OutputKeysNtB5_6OutputE6writer
FNDA:1,_RINvMs0_NtCsb4HXwg7kb3v_12block_traits12type_erasureNtB6_5Block3newNtNtNtB6_5tests10test_block9TestBlockEB8_
FNDA:0,_RINvMs0_NtCsb4HXwg7kb3v_12block_traits12type_erasureNtB6_5Block3newNtNtNtB8_11block_weave5tests13MultiplyBlockEB8_
FNDA:3,_RNvMNtCsb4HXwg7kb3v_12block_traits12type_erasureINtB2_17EncapsulatedBlockNtNtB4_10test_types12DoublerBlockE3newB4_
FNDA:4,_RNvMNtCsb4HXwg7kb3v_12block_traits12type_erasureINtB2_17EncapsulatedBlockNtNtNtB2_5tests10test_block9TestBlockE3newB4_
FNDA:0,_RNvMNtCsb4HXwg7kb3v_12block_traits12type_erasureINtB2_17EncapsulatedBlockNtNtNtB4_11block_weave5tests13MultiplyBlockE3newB4_
FNDA:6,_RNvXs_NtCsb4HXwg7kb3v_12block_traits12type_erasureINtB4_17EncapsulatedBlockNtNtB6_10test_types12DoublerBlockENtB4_15TypeErasedBlock7executeB6_
FNDA:4,_RNvXs_NtCsb4HXwg7kb3v_12block_traits12type_erasureINtB4_17EncapsulatedBlockNtNtNtB4_5tests10test_block9TestBlockENtB4_15TypeErasedBlock7executeB6_
FNDA:2,_RNvXs_NtCsb4HXwg7kb3v_12block_traits12type_erasureINtB4_17EncapsulatedBlockNtNtNtB4_5tests10test_block9TestBlockENtB4_15TypeErasedBlock8block_idB6_
FNDA:0,_RNvXs_NtCsb4HXwg7kb3v_12block_traits12type_erasureINtB4_17EncapsulatedBlockNtNtNtB6_11block_weave5tests13MultiplyBlockENtB4_15TypeErasedBlock7executeB6_
FNDA:0,_RNvXs_NtCsb4HXwg7kb3v_12block_traits12type_erasureINtB4_17EncapsulatedBlockNtNtNtB6_11block_weave5tests13MultiplyBlockENtB4_15TypeErasedBlock8block_idB6_
FNDA:0,_RINvMs0_NtCsftJwm24TBQa_12block_traits12type_erasureNtB6_5Block3newNtNtCs8vpBMIMeQE0_6blocks12simple_order16SimpleOrderBlockEB17_
FNDA:1,_RINvMs0_NtCsftJwm24TBQa_12block_traits12type_erasureNtB6_5Block3newNtNtCs8vpBMIMeQE0_6blocks5after10AfterBlockEB17_
FNDA:1,_RINvMs0_NtCsftJwm24TBQa_12block_traits12type_erasureNtB6_5Block3newNtNtCs8vpBMIMeQE0_6blocks6delete11DeleteBlockEB17_
FNDA:0,_RNvMNtCsftJwm24TBQa_12block_traits12type_erasureINtB2_17EncapsulatedBlockNtNtCs8vpBMIMeQE0_6blocks12simple_order16SimpleOrderBlockE3newB1d_
FNDA:1,_RNvMNtCsftJwm24TBQa_12block_traits12type_erasureINtB2_17EncapsulatedBlockNtNtCs8vpBMIMeQE0_6blocks5after10AfterBlockE3newB1d_
FNDA:1,_RNvMNtCsftJwm24TBQa_12block_traits12type_erasureINtB2_17EncapsulatedBlockNtNtCs8vpBMIMeQE0_6blocks6delete11DeleteBlockE3newB1d_
FNDA:0,_RNvXs_NtCsftJwm24TBQa_12block_traits12type_erasureINtB4_17EncapsulatedBlockNtNtCs8vpBMIMeQE0_6blocks12simple_order16SimpleOrderBlockENtB4_15TypeErasedBlock7executeB1f_
FNDA:0,_RNvXs_NtCsftJwm24TBQa_12block_traits12type_erasureINtB4_17EncapsulatedBlockNtNtCs8vpBMIMeQE0_6blocks12simple_order16SimpleOrderBlockENtB4_15TypeErasedBlock8block_idB1f_
FNDA:1,_RNvXs_NtCsftJwm24TBQa_12block_traits12type_erasureINtB4_17EncapsulatedBlockNtNtCs8vpBMIMeQE0_6blocks5after10AfterBlockENtB4_15TypeErasedBlock7executeB1f_
FNDA:0,_RNvXs_NtCsftJwm24TBQa_12block_traits12type_erasureINtB4_17EncapsulatedBlockNtNtCs8vpBMIMeQE0_6blocks5after10AfterBlockENtB4_15TypeErasedBlock8block_idB1f_
FNDA:1,_RNvXs_NtCsftJwm24TBQa_12block_traits12type_erasureINtB4_17EncapsulatedBlockNtNtCs8vpBMIMeQE0_6blocks6delete11DeleteBlockENtB4_15TypeErasedBlock7executeB1f_
FNDA:0,_RNvXs_NtCsftJwm24TBQa_12block_traits12type_erasureINtB4_17EncapsulatedBlockNtNtCs8vpBMIMeQE0_6blocks6delete11DeleteBlockENtB4_15TypeErasedBlock8block_idB1f_
FNDA:2,_RNvMs0_NtCsftJwm24TBQa_12block_traits12type_erasureNtB5_5Block7execute
FNDA:0,_RNvMs0_NtCsftJwm24TBQa_12block_traits12type_erasureNtB5_5Block8block_id
FNDA:0,_RINvMs0_NtCsftJwm24TBQa_12block_traits12type_erasureNtB6_5Block3newpEB8_
FNDA:0,_RNvMNtCsftJwm24TBQa_12block_traits12type_erasureINtB2_17EncapsulatedBlockpE3newB4_
FNDA:0,_RNvXININtCsftJwm24TBQa_12block_traits12type_erasures_0pEINtB5_17EncapsulatedBlockpENtB5_15TypeErasedBlock7executeB7_
FNDA:0,_RNvXININtCsftJwm24TBQa_12block_traits12type_erasures_0pEINtB5_17EncapsulatedBlockpENtB5_15TypeErasedBlock8block_idB7_
FNDA:1,_RINvMs0_NtCsftJwm24TBQa_12block_traits12type_erasureNtB6_5Block3newNtNtCsk8cf5WJa4A9_6blocks12simple_order16SimpleOrderBlockEB17_
FNDA:1,_RINvMs0_NtCsftJwm24TBQa_12block_traits12type_erasureNtB6_5Block3newNtNtCsk8cf5WJa4A9_6blocks5after10AfterBlockEB17_
FNDA:0,_RINvMs0_NtCsftJwm24TBQa_12block_traits12type_erasureNtB6_5Block3newNtNtCsk8cf5WJa4A9_6blocks6delete11DeleteBlockEB17_
FNDA:1,_RNvMNtCsftJwm24TBQa_12block_traits12type_erasureINtB2_17EncapsulatedBlockNtNtCsk8cf5WJa4A9_6blocks12simple_order16SimpleOrderBlockE3newB1d_
FNDA:1,_RNvMNtCsftJwm24TBQa_12block_traits12type_erasureINtB2_17EncapsulatedBlockNtNtCsk8cf5WJa4A9_6blocks5after10AfterBlockE3newB1d_
FNDA:0,_RNvMNtCsftJwm24TBQa_12block_traits12type_erasureINtB2_17EncapsulatedBlockNtNtCsk8cf5WJa4A9_6blocks6delete11DeleteBlockE3newB1d_
FNDA:0,_RNvXs_NtCsftJwm24TBQa_12block_traits12type_erasureINtB4_17EncapsulatedBlockNtNtCsk8cf5WJa4A9_6blocks12simple_order16SimpleOrderBlockENtB4_15TypeErasedBlock7executeB1f_
FNDA:0,_RNvXs_NtCsftJwm24TBQa_12block_traits12type_erasureINtB4_17EncapsulatedBlockNtNtCsk8cf5WJa4A9_6blocks12simple_order16SimpleOrderBlockENtB4_15TypeErasedBlock8block_idB1f_
FNDA:0,_RNvXs_NtCsftJwm24TBQa_12block_traits12type_erasureINtB4_17EncapsulatedBlockNtNtCsk8cf5WJa4A9_6blocks5after10AfterBlockENtB4_15TypeErasedBlock7executeB1f_
FNDA:0,_RNvXs_NtCsftJwm24TBQa_12block_traits12type_erasureINtB4_17EncapsulatedBlockNtNtCsk8cf5WJa4A9_6blocks5after10AfterBlockENtB4_15TypeErasedBlock8block_idB1f_
FNDA:0,_RNvXs_NtCsftJwm24TBQa_12block_traits12type_erasureINtB4_17EncapsulatedBlockNtNtCsk8cf5WJa4A9_6blocks6delete11DeleteBlockENtB4_15TypeErasedBlock7executeB1f_
FNDA:0,_RNvXs_NtCsftJwm24TBQa_12block_traits12type_erasureINtB4_17EncapsulatedBlockNtNtCsk8cf5WJa4A9_6blocks6delete11DeleteBlockENtB4_15TypeErasedBlock8block_idB1f_
FNF:20
FNH:17
DA:13,11
DA:14,11
DA:15,11
DA:16,11
DA:17,11
DA:18,11
DA:19,11
DA:20,11
DA:21,11
DA:22,11
DA:23,11
DA:24,11
DA:25,11
DA:26,11
DA:27,11
DA:36,2
DA:37,2
DA:38,2
DA:40,12
DA:43,12
DA:44,12
DA:46,12
DA:48,12
DA:49,12
DA:50,12
DA:52,12
DA:53,12
DA:62,5
DA:63,5
DA:64,5
DA:65,5
DA:66,5
DA:67,5
DA:68,5
DA:69,5
DA:70,5
DA:71,5
DA:72,5
DA:74,1
DA:75,1
DA:76,1
DA:78,3
DA:79,3
DA:80,3
DA:95,0
DA:100,0
DA:111,6
DA:112,6
DA:113,6
DA:115,0
DA:116,0
DA:117,0
DA:119,4
DA:120,4
DA:121,4
DA:124,4
DA:125,4
DA:132,4
DA:133,4
DA:134,4
DA:135,4
DA:136,4
DA:138,4
DA:139,4
DA:140,4
DA:141,4
DA:142,4
DA:147,1
DA:148,1
DA:149,1
DA:151,1
DA:152,1
DA:155,1
DA:157,1
DA:159,1
DA:160,1
DA:162,1
DA:163,1
DA:164,1
DA:167,1
DA:168,1
DA:169,1
DA:172,1
DA:174,1
DA:175,1
DA:176,1
DA:178,1
DA:179,1
DA:181,1
DA:182,1
DA:184,1
DA:185,1
DA:186,1
DA:189,1
DA:190,1
DA:191,1
DA:192,1
DA:195,1
DA:196,1
DA:197,1
DA:199,1
DA:201,1
DA:202,1
DA:203,1
DA:205,1
DA:206,1
DA:208,1
DA:210,1
DA:212,1
DA:214,1
DA:216,1
DA:217,1
DA:218,1
DA:219,1
DA:222,1
DA:223,1
DA:224,1
DA:226,1
DA:228,1
DA:229,1
DA:230,1
DA:232,1
DA:233,1
DA:235,1
DA:236,1
DA:238,1
DA:239,1
DA:241,1
DA:242,1
DA:243,1
DA:244,1
DA:250,1
DA:251,1
DA:252,1
DA:253,1
DA:254,1
DA:255,1
DA:256,1
DA:257,1
DA:259,1
DA:260,1
DA:262,1
DA:264,1
DA:265,1
DA:266,1
DA:268,1
DA:269,1
DA:272,1
DA:273,1
DA:274,1
DA:275,1
DA:276,1
DA:277,1
DA:278,1
DA:279,1
DA:281,1
DA:282,1
DA:284,6
DA:285,5
DA:286,5
DA:288,5
DA:289,5
DA:291,1
BRF:0
BRH:0
LF:163
LH:158
end_of_record
SF:/Users/mailund/Code/block-flow/blocks/src/after.rs
FN:49,_RNvNtNtCs8vpBMIMeQE0_6blocks5after5tests3ctx
FN:105,_RNvNtNtCs8vpBMIMeQE0_6blocks5after5testss_27execute_is_false_when_equal
FN:54,_RNvNtNtCs8vpBMIMeQE0_6blocks5after5testss_42make_defaults_creates_unit_input_and_state
FN:69,_RNvNtNtCs8vpBMIMeQE0_6blocks5after5testss_51new_from_init_params_sets_time_and_block_id_default
FN:92,_RNvNtNtCs8vpBMIMeQE0_6blocks5after5testss_64execute_returns_output_and_defaults_for_missing_parts_after_time
FN:78,_RNvNtNtCs8vpBMIMeQE0_6blocks5after5testss_65execute_returns_output_and_defaults_for_missing_parts_before_time
FN:39,_RNCNvXNtCs8vpBMIMeQE0_6blocks5afterNtB4_10AfterBlockNtNtCsftJwm24TBQa_12block_traits10block_spec9BlockSpec7execute0B6_
FN:34,_RNvXNtCs8vpBMIMeQE0_6blocks5afterNtB2_10AfterBlockNtNtCsftJwm24TBQa_12block_traits10block_spec9BlockSpec10init_state
FN:27,_RNvXNtCs8vpBMIMeQE0_6blocks5afterNtB2_10AfterBlockNtNtCsftJwm24TBQa_12block_traits10block_spec9BlockSpec20new_from_init_params
FN:23,_RNvXNtCs8vpBMIMeQE0_6blocks5afterNtB2_10AfterBlockNtNtCsftJwm24TBQa_12block_traits10block_spec9BlockSpec8block_id
FN:4,_RNvXs3_NtCs8vpBMIMeQE0_6blocks5afterNtB5_9InputKeysNtNtCs6JSeF52E3eC_8channels12channel_keys11ChannelKeys13channel_names
FN:6,_RNvXse_NtCs8vpBMIMeQE0_6blocks5afterNtB5_10OutputKeysINtNtCs6JSeF52E3eC_8channels12channel_keys10OutputKeysNtB5_6OutputE6writer
FN:34,_RNvXNtCsk8cf5WJa4A9_6blocks5afterNtB2_10AfterBlockNtNtCsftJwm24TBQa_12block_traits10block_spec9BlockSpec10init_state
FN:27,_RNvXNtCsk8cf5WJa4A9_6blocks5afterNtB2_10AfterBlockNtNtCsftJwm24TBQa_12block_traits10block_spec9BlockSpec20new_from_init_params
FN:23,_RNvXNtCsk8cf5WJa4A9_6blocks5afterNtB2_10AfterBlockNtNtCsftJwm24TBQa_12block_traits10block_spec9BlockSpec8block_id
FN:4,_RNvXs3_NtCsk8cf5WJa4A9_6blocks5afterNtB5_9InputKeysNtNtCs6JSeF52E3eC_8channels12channel_keys11ChannelKeys13channel_names
FN:6,_RNvXse_NtCsk8cf5WJa4A9_6blocks5afterNtB5_10OutputKeysINtNtCs6JSeF52E3eC_8channels12channel_keys10OutputKeysNtB5_6OutputE6writer
FN:39,_RNCNvXNtCsk8cf5WJa4A9_6blocks5afterNtB4_10AfterBlockNtNtCsftJwm24TBQa_12block_traits10block_spec9BlockSpec7execute0B6_
FNDA:3,_RNvNtNtCs8vpBMIMeQE0_6blocks5after5tests3ctx
FNDA:1,_RNvNtNtCs8vpBMIMeQE0_6blocks5after5testss_27execute_is_false_when_equal
FNDA:1,_RNvNtNtCs8vpBMIMeQE0_6blocks5after5testss_42make_defaults_creates_unit_input_and_state
FNDA:1,_RNvNtNtCs8vpBMIMeQE0_6blocks5after5testss_51new_from_init_params_sets_time_and_block_id_default
FNDA:1,_RNvNtNtCs8vpBMIMeQE0_6blocks5after5testss_64execute_returns_output_and_defaults_for_missing_parts_after_time
FNDA:1,_RNvNtNtCs8vpBMIMeQE0_6blocks5after5testss_65execute_returns_output_and_defaults_for_missing_parts_before_time
FNDA:4,_RNCNvXNtCs8vpBMIMeQE0_6blocks5afterNtB4_10AfterBlockNtNtCsftJwm24TBQa_12block_traits10block_spec9BlockSpec7execute0B6_
FNDA:1,_RNvXNtCs8vpBMIMeQE0_6blocks5afterNtB2_10AfterBlockNtNtCsftJwm24TBQa_12block_traits10block_spec9BlockSpec10init_state
FNDA:5,_RNvXNtCs8vpBMIMeQE0_6blocks5afterNtB2_10AfterBlockNtNtCsftJwm24TBQa_12block_traits10block_spec9BlockSpec20new_from_init_params
FNDA:2,_RNvXNtCs8vpBMIMeQE0_6blocks5afterNtB2_10AfterBlockNtNtCsftJwm24TBQa_12block_traits10block_spec9BlockSpec8block_id
FNDA:0,_RNvXs3_NtCs8vpBMIMeQE0_6blocks5afterNtB5_9InputKeysNtNtCs6JSeF52E3eC_8channels12channel_keys11ChannelKeys13channel_names
FNDA:0,_RNvXse_NtCs8vpBMIMeQE0_6blocks5afterNtB5_10OutputKeysINtNtCs6JSeF52E3eC_8channels12channel_keys10OutputKeysNtB5_6OutputE6writer
FNDA:1,_RNvXNtCsk8cf5WJa4A9_6blocks5afterNtB2_10AfterBlockNtNtCsftJwm24TBQa_12block_traits10block_spec9BlockSpec10init_state
FNDA:1,_RNvXNtCsk8cf5WJa4A9_6blocks5afterNtB2_10AfterBlockNtNtCsftJwm24TBQa_12block_traits10block_spec9BlockSpec20new_from_init_params
FNDA:0,_RNvXNtCsk8cf5WJa4A9_6blocks5afterNtB2_10AfterBlockNtNtCsftJwm24TBQa_12block_traits10block_spec9BlockSpec8block_id
FNDA:1,_RNvXs3_NtCsk8cf5WJa4A9_6blocks5afterNtB5_9InputKeysNtNtCs6JSeF52E3eC_8channels12channel_keys11ChannelKeys13channel_names
FNDA:0,_RNvXse_NtCsk8cf5WJa4A9_6blocks5afterNtB5_10OutputKeysINtNtCs6JSeF52E3eC_8channels12channel_keys10OutputKeysNtB5_6OutputE6writer
FNDA:0,_RNCNvXNtCsk8cf5WJa4A9_6blocks5afterNtB4_10AfterBlockNtNtCsftJwm24TBQa_12block_traits10block_spec9BlockSpec7execute0B6_
FNF:12
FNH:11
DA:4,1
DA:6,0
DA:23,2
DA:24,2
DA:25,2
DA:27,6
DA:28,6
DA:29,6
DA:30,6
DA:31,6
DA:32,6
DA:34,2
DA:35,2
DA:36,2
DA:39,4
DA:40,4
DA:41,4
DA:49,3
DA:50,3
DA:51,3
DA:54,1
DA:56,1
DA:57,1
DA:60,1
DA:61,1
DA:64,1
DA:65,1
DA:66,1
DA:69,1
DA:70,1
DA:71,1
DA:74,1
DA:75,1
DA:78,1
DA:79,1
DA:80,1
DA:82,1
DA:85,1
DA:87,1
DA:88,1
DA:89,1
DA:92,1
DA:93,1
DA:94,1
DA:96,1
DA:98,1
DA:100,1
DA:101,1
DA:102,1
DA:105,1
DA:106,1
DA:107,1
DA:109,1
DA:111,1
DA:113,1
DA:114,1
BRF:0
BRH:0
LF:56
LH:55
end_of_record
SF:/Users/mailund/Code/block-flow/blocks/src/delete.rs
FN:29,_RNCNvXNtCs8vpBMIMeQE0_6blocks6deleteNtB4_11DeleteBlockNtNtCsftJwm24TBQa_12block_traits10block_spec9BlockSpec7execute0B6_
FN:24,_RNvXNtCs8vpBMIMeQE0_6blocks6deleteNtB2_11DeleteBlockNtNtCsftJwm24TBQa_12block_traits10block_spec9BlockSpec10init_state
FN:20,_RNvXNtCs8vpBMIMeQE0_6blocks6deleteNtB2_11DeleteBlockNtNtCsftJwm24TBQa_12block_traits10block_spec9BlockSpec20new_from_init_params
FN:16,_RNvXNtCs8vpBMIMeQE0_6blocks6deleteNtB2_11DeleteBlockNtNtCsftJwm24TBQa_12block_traits10block_spec9BlockSpec8block_id
FN:3,_RNvXs4_NtCs8vpBMIMeQE0_6blocks6deleteNtB5_10OutputKeysNtNtCs6JSeF52E3eC_8channels12channel_keys11ChannelKeys13channel_names
FN:5,_RNvXsi_NtCs8vpBMIMeQE0_6blocks6deleteNtB5_9InputKeysINtNtCs6JSeF52E3eC_8channels12channel_keys9InputKeysNtB5_5InputE6reader
FN:67,_RNvNtNtCs8vpBMIMeQE0_6blocks6delete5testss_32init_state_returns_default_state
FN:97,_RNvNtNtCs8vpBMIMeQE0_6blocks6delete5testss_34execute_handles_should_delete_true
FN:61,_RNvNtNtCs8vpBMIMeQE0_6blocks6delete5testss_42new_from_init_params_sets_block_id_default
FN:44,_RNvNtNtCs8vpBMIMeQE0_6blocks6delete5testss_55make_defaults_creates_unit_output_state_and_init_params
FN:74,_RNvNtNtCs8vpBMIMeQE0_6blocks6delete5testss_75execute_compiles_and_returns_defaults_when_no_output_state_intents_returned
FN:24,_RNvXNtCsk8cf5WJa4A9_6blocks6deleteNtB2_11DeleteBlockNtNtCsftJwm24TBQa_12block_traits10block_spec9BlockSpec10init_state
FN:20,_RNvXNtCsk8cf5WJa4A9_6blocks6deleteNtB2_11DeleteBlockNtNtCsftJwm24TBQa_12block_traits10block_spec9BlockSpec20new_from_init_params
FN:16,_RNvXNtCsk8cf5WJa4A9_6blocks6deleteNtB2_11DeleteBlockNtNtCsftJwm24TBQa_12block_traits10block_spec9BlockSpec8block_id
FN:3,_RNvXs4_NtCsk8cf5WJa4A9_6blocks6deleteNtB5_10OutputKeysNtNtCs6JSeF52E3eC_8channels12channel_keys11ChannelKeys13channel_names
FN:5,_RNvXsi_NtCsk8cf5WJa4A9_6blocks6deleteNtB5_9InputKeysINtNtCs6JSeF52E3eC_8channels12channel_keys9InputKeysNtB5_5InputE6reader
FN:29,_RNCNvXNtCsk8cf5WJa4A9_6blocks6deleteNtB4_11DeleteBlockNtNtCsftJwm24TBQa_12block_traits10block_spec9BlockSpec7execute0B6_
FNDA:3,_RNCNvXNtCs8vpBMIMeQE0_6blocks6deleteNtB4_11DeleteBlockNtNtCsftJwm24TBQa_12block_traits10block_spec9BlockSpec7execute0B6_
FNDA:2,_RNvXNtCs8vpBMIMeQE0_6blocks6deleteNtB2_11DeleteBlockNtNtCsftJwm24TBQa_12block_traits10block_spec9BlockSpec10init_state
FNDA:2,_RNvXNtCs8vpBMIMeQE0_6blocks6deleteNtB2_11DeleteBlockNtNtCsftJwm24TBQa_12block_traits10block_spec9BlockSpec20new_from_init_params
FNDA:2,_RNvXNtCs8vpBMIMeQE0_6blocks6deleteNtB2_11DeleteBlockNtNtCsftJwm24TBQa_12block_traits10block_spec9BlockSpec8block_id
FNDA:0,_RNvXs4_NtCs8vpBMIMeQE0_6blocks6deleteNtB5_10OutputKeysNtNtCs6JSeF52E3eC_8channels12channel_keys11ChannelKeys13channel_names
FNDA:0,_RNvXsi_NtCs8vpBMIMeQE0_6blocks6deleteNtB5_9InputKeysINtNtCs6JSeF52E3eC_8channels12channel_keys9InputKeysNtB5_5InputE6reader
FNDA:1,_RNvNtNtCs8vpBMIMeQE0_6blocks6delete5testss_32init_state_returns_default_state
FNDA:1,_RNvNtNtCs8vpBMIMeQE0_6blocks6delete5testss_34execute_handles_should_delete_true
FNDA:1,_RNvNtNtCs8vpBMIMeQE0_6blocks6delete5testss_42new_from_init_params_sets_block_id_default
FNDA:1,_RNvNtNtCs8vpBMIMeQE0_6blocks6delete5testss_55make_defaults_creates_unit_output_state_and_init_params
FNDA:1,_RNvNtNtCs8vpBMIMeQE0_6blocks6delete5testss_75execute_compiles_and_returns_defaults_when_no_output_state_intents_returned
FNDA:0,_RNvXNtCsk8cf5WJa4A9_6blocks6deleteNtB2_11DeleteBlockNtNtCsftJwm24TBQa_12block_traits10block_spec9BlockSpec10init_state
FNDA:0,_RNvXNtCsk8cf5WJa4A9_6blocks6deleteNtB2_11DeleteBlockNtNtCsftJwm24TBQa_12block_traits10block_spec9BlockSpec20new_from_init_params
FNDA:0,_RNvXNtCsk8cf5WJa4A9_6blocks6deleteNtB2_11DeleteBlockNtNtCsftJwm24TBQa_12block_traits10block_spec9BlockSpec8block_id
FNDA:0,_RNvXs4_NtCsk8cf5WJa4A9_6blocks6deleteNtB5_10OutputKeysNtNtCs6JSeF52E3eC_8channels12channel_keys11ChannelKeys13channel_names
FNDA:0,_RNvXsi_NtCsk8cf5WJa4A9_6blocks6deleteNtB5_9InputKeysINtNtCs6JSeF52E3eC_8channels12channel_keys9InputKeysNtB5_5InputE6reader
FNDA:0,_RNCNvXNtCsk8cf5WJa4A9_6blocks6deleteNtB4_11DeleteBlockNtNtCsftJwm24TBQa_12block_traits10block_spec9BlockSpec7execute0B6_
FNF:11
FNH:9
DA:3,0
DA:5,0
DA:16,2
DA:17,2
DA:18,2
DA:20,2
DA:21,2
DA:22,2
DA:24,2
DA:25,2
DA:26,2
DA:29,3
DA:30,3
DA:31,2
DA:32,2
DA:33,2
DA:34,1
DA:35,1
DA:44,1
DA:46,1
DA:47,1
DA:48,1
DA:51,1
DA:52,1
DA:53,1
DA:55,1
DA:56,1
DA:57,1
DA:58,1
DA:61,1
DA:62,1
DA:63,1
DA:64,1
DA:67,1
DA:68,1
DA:69,1
DA:70,1
DA:71,1
DA:74,1
DA:75,1
DA:76,1
DA:77,1
DA:81,1
DA:82,1
DA:83,1
DA:84,1
DA:85,1
DA:86,1
DA:87,1
DA:91,1
DA:92,1
DA:93,1
DA:94,1
DA:97,1
DA:98,1
DA:99,1
DA:100,1
DA:102,1
DA:103,1
DA:104,1
DA:105,1
DA:106,1
DA:107,1
DA:108,1
DA:110,1
DA:111,1
DA:112,1
DA:113,1
BRF:0
BRH:0
LF:68
LH:66
end_of_record
SF:/Users/mailund/Code/block-flow/blocks/src/lib.rs
FN:93,_RNvNtCs8vpBMIMeQE0_6blocks4test8tmp_path
FN:338,_RNvNtCs8vpBMIMeQE0_6blocks4tests_36deserialize_invalid_block_type_fails
FN:188,_RNvNtCs8vpBMIMeQE0_6blocks4tests_36deserialize_single_block_from_string
FN:359,_RNvNtCs8vpBMIMeQE0_6blocks4tests_38read_blocktypes_from_json_file_success
FN:214,_RNvNtCs8vpBMIMeQE0_6blocks4tests_39deserialize_multiple_blocks_from_string
FN:411,_RNvNtCs8vpBMIMeQE0_6blocks4tests_46read_blocks_error_from_conversions_are_covered
FN:292,_RNvNtCs8vpBMIMeQE0_6blocks4tests_46weave_and_execute_end_to_end_after_then_delete
FN:108,_RNvNtCs8vpBMIMeQE0_6blocks4tests_47block_type_serialization_roundtrip_all_variants
FN:350,_RNvNtCs8vpBMIMeQE0_6blocks4tests_51read_blocktypes_from_json_string_invalid_json_fails
FN:397,_RNvNtCs8vpBMIMeQE0_6blocks4tests_53read_blocktypes_from_json_file_bad_json_is_json_error
FN:384,_RNvNtCs8vpBMIMeQE0_6blocks4tests_55read_blocktypes_from_json_file_missing_file_is_io_error
FN:256,_RNvNtCs8vpBMIMeQE0_6blocks4tests_66read_blocks_from_json_string_produces_weave_nodes_for_all_variants
FN:76,_RINvCs8vpBMIMeQE0_6blocks30read_blocktypes_from_json_fileRNtNtCsiThrkg7suPy_3std4path7PathBufEB2_
FN:72,_RNCNvCs8vpBMIMeQE0_6blocks28read_blocks_from_json_string0B3_
FN:65,_RNvCs8vpBMIMeQE0_6blocks28read_blocks_from_json_string
FN:59,_RNvCs8vpBMIMeQE0_6blocks32read_blocktypes_from_json_string
FN:28,_RNvMCs8vpBMIMeQE0_6blocksNtB2_9BlockType13as_weave_node
FN:52,_RNvXs0_Cs8vpBMIMeQE0_6blocksNtB5_15ReadBlocksErrorINtNtCskzPJi2J8k3N_4core7convert4FromNtNtCs1dyZE4UH4oJ_10serde_json5error5ErrorE4from
FN:46,_RNvXs_Cs8vpBMIMeQE0_6blocksNtB4_15ReadBlocksErrorINtNtCskzPJi2J8k3N_4core7convert4FromNtNtNtCsiThrkg7suPy_3std2io5error5ErrorE4from
FN:72,_RNCNvCsk8cf5WJa4A9_6blocks28read_blocks_from_json_string0B3_
FN:65,_RNvCsk8cf5WJa4A9_6blocks28read_blocks_from_json_string
FN:59,_RNvCsk8cf5WJa4A9_6blocks32read_blocktypes_from_json_string
FN:28,_RNvMCsk8cf5WJa4A9_6blocksNtB2_9BlockType13as_weave_node
FN:52,_RNvXs0_Csk8cf5WJa4A9_6blocksNtB5_15ReadBlocksErrorINtNtCskzPJi2J8k3N_4core7convert4FromNtNtCs1dyZE4UH4oJ_10serde_json5error5ErrorE4from
FN:46,_RNvXs_Csk8cf5WJa4A9_6blocksNtB4_15ReadBlocksErrorINtNtCskzPJi2J8k3N_4core7convert4FromNtNtNtCsiThrkg7suPy_3std2io5error5ErrorE4from
FNDA:3,_RNvNtCs8vpBMIMeQE0_6blocks4test8tmp_path
FNDA:1,_RNvNtCs8vpBMIMeQE0_6blocks4tests_36deserialize_invalid_block_type_fails
FNDA:1,_RNvNtCs8vpBMIMeQE0_6blocks4tests_36deserialize_single_block_from_string
FNDA:1,_RNvNtCs8vpBMIMeQE0_6blocks4tests_38read_blocktypes_from_json_file_success
FNDA:1,_RNvNtCs8vpBMIMeQE0_6blocks4tests_39deserialize_multiple_blocks_from_string
FNDA:1,_RNvNtCs8vpBMIMeQE0_6blocks4tests_46read_blocks_error_from_conversions_are_covered
FNDA:1,_RNvNtCs8vpBMIMeQE0_6blocks4tests_46weave_and_execute_end_to_end_after_then_delete
FNDA:1,_RNvNtCs8vpBMIMeQE0_6blocks4tests_47block_type_serialization_roundtrip_all_variants
FNDA:1,_RNvNtCs8vpBMIMeQE0_6blocks4tests_51read_blocktypes_from_json_string_invalid_json_fails
FNDA:1,_RNvNtCs8vpBMIMeQE0_6blocks4tests_53read_blocktypes_from_json_file_bad_json_is_json_error
FNDA:1,_RNvNtCs8vpBMIMeQE0_6blocks4tests_55read_blocktypes_from_json_file_missing_file_is_io_error
FNDA:1,_RNvNtCs8vpBMIMeQE0_6blocks4tests_66read_blocks_from_json_string_produces_weave_nodes_for_all_variants
FNDA:3,_RINvCs8vpBMIMeQE0_6blocks30read_blocktypes_from_json_fileRNtNtCsiThrkg7suPy_3std4path7PathBufEB2_
FNDA:5,_RNCNvCs8vpBMIMeQE0_6blocks28read_blocks_from_json_string0B3_
FNDA:2,_RNvCs8vpBMIMeQE0_6blocks28read_blocks_from_json_string
FNDA:6,_RNvCs8vpBMIMeQE0_6blocks32read_blocktypes_from_json_string
FNDA:5,_RNvMCs8vpBMIMeQE0_6blocksNtB2_9BlockType13as_weave_node
FNDA:2,_RNvXs0_Cs8vpBMIMeQE0_6blocksNtB5_15ReadBlocksErrorINtNtCskzPJi2J8k3N_4core7convert4FromNtNtCs1dyZE4UH4oJ_10serde_json5error5ErrorE4from
FNDA:2,_RNvXs_Cs8vpBMIMeQE0_6blocksNtB4_15ReadBlocksErrorINtNtCskzPJi2J8k3N_4core7convert4FromNtNtNtCsiThrkg7suPy_3std2io5error5ErrorE4from
FNDA:0,_RNCNvCsk8cf5WJa4A9_6blocks28read_blocks_from_json_string0B3_
FNDA:0,_RNvCsk8cf5WJa4A9_6blocks28read_blocks_from_json_string
FNDA:0,_RNvCsk8cf5WJa4A9_6blocks32read_blocktypes_from_json_string
FNDA:0,_RNvMCsk8cf5WJa4A9_6blocksNtB2_9BlockType13as_weave_node
FNDA:0,_RNvXs0_Csk8cf5WJa4A9_6blocksNtB5_15ReadBlocksErrorINtNtCskzPJi2J8k3N_4core7convert4FromNtNtCs1dyZE4UH4oJ_10serde_json5error5ErrorE4from
FNDA:0,_RNvXs_Csk8cf5WJa4A9_6blocksNtB4_15ReadBlocksErrorINtNtCskzPJi2J8k3N_4core7convert4FromNtNtNtCsiThrkg7suPy_3std2io5error5ErrorE4from
FNF:19
FNH:19
DA:28,5
DA:29,5
DA:30,5
DA:31,5
DA:32,2
DA:33,2
DA:34,1
DA:36,5
DA:46,2
DA:47,2
DA:48,2
DA:52,2
DA:53,2
DA:54,2
DA:59,6
DA:60,6
DA:61,6
DA:65,2
DA:66,2
DA:67,2
DA:68,2
DA:69,2
DA:70,2
DA:71,2
DA:72,5
DA:73,2
DA:74,2
DA:76,3
DA:77,3
DA:78,3
DA:79,3
DA:80,2
DA:81,2
DA:82,2
DA:83,3
DA:93,3
DA:94,3
DA:95,3
DA:96,3
DA:98,3
DA:99,3
DA:100,3
DA:101,3
DA:102,3
DA:104,3
DA:105,3
DA:108,1
DA:116,1
DA:117,1
DA:118,1
DA:119,1
DA:120,1
DA:121,1
DA:122,1
DA:131,1
DA:132,1
DA:133,1
DA:134,1
DA:135,1
DA:136,1
DA:137,1
DA:144,1
DA:145,1
DA:146,1
DA:147,1
DA:148,1
DA:149,1
DA:150,1
DA:151,1
DA:152,1
DA:153,1
DA:155,1
DA:156,1
DA:157,1
DA:158,1
DA:161,1
DA:162,1
DA:163,1
DA:165,1
DA:166,1
DA:167,1
DA:168,1
DA:170,0
DA:172,1
DA:173,1
DA:174,1
DA:176,0
DA:178,1
DA:179,1
DA:180,1
DA:181,1
DA:183,0
DA:185,1
DA:188,1
DA:189,1
DA:190,1
DA:191,1
DA:192,1
DA:193,1
DA:194,1
DA:195,1
DA:196,1
DA:197,1
DA:198,1
DA:199,1
DA:200,1
DA:202,1
DA:203,1
DA:205,1
DA:206,1
DA:207,1
DA:209,0
DA:211,1
DA:214,1
DA:215,1
DA:216,1
DA:217,1
DA:218,1
DA:219,1
DA:220,1
DA:221,1
DA:222,1
DA:223,1
DA:224,1
DA:225,1
DA:226,1
DA:227,1
DA:228,1
DA:229,1
DA:230,1
DA:231,1
DA:232,1
DA:233,1
DA:234,1
DA:236,1
DA:237,1
DA:239,1
DA:240,1
DA:241,1
DA:242,1
DA:244,0
DA:247,1
DA:248,1
DA:249,1
DA:251,0
DA:253,1
DA:256,1
DA:258,1
DA:259,1
DA:260,1
DA:261,1
DA:262,1
DA:263,1
DA:264,1
DA:265,1
DA:266,1
DA:267,1
DA:268,1
DA:269,1
DA:270,1
DA:271,1
DA:272,1
DA:273,1
DA:274,1
DA:275,1
DA:276,1
DA:277,1
DA:278,1
DA:279,1
DA:280,1
DA:281,1
DA:282,1
DA:283,1
DA:284,1
DA:285,1
DA:287,1
DA:288,1
DA:289,1
DA:292,1
DA:297,1
DA:298,1
DA:299,1
DA:300,1
DA:301,1
DA:302,1
DA:303,1
DA:304,1
DA:305,1
DA:306,1
DA:307,1
DA:308,1
DA:309,1
DA:310,1
DA:311,1
DA:312,1
DA:313,1
DA:314,1
DA:315,1
DA:316,1
DA:318,1
DA:319,1
DA:323,1
DA:324,1
DA:325,1
DA:329,1
DA:330,1
DA:333,1
DA:334,1
DA:335,1
DA:338,1
DA:339,1
DA:340,1
DA:341,1
DA:342,1
DA:343,1
DA:345,1
DA:346,1
DA:347,1
DA:350,1
DA:352,1
DA:353,1
DA:355,1
DA:356,1
DA:359,1
DA:360,1
DA:361,1
DA:362,1
DA:363,1
DA:364,1
DA:365,1
DA:366,1
DA:367,1
DA:368,1
DA:369,1
DA:370,1
DA:371,1
DA:373,1
DA:374,1
DA:376,1
DA:377,1
DA:380,1
DA:381,1
DA:384,1
DA:385,1
DA:387,1
DA:389,1
DA:390,1
DA:391,1
DA:392,0
DA:394,1
DA:397,1
DA:398,1
DA:399,1
DA:401,1
DA:402,1
DA:403,1
DA:404,0
DA:407,1
DA:408,1
DA:411,1
DA:413,1
DA:414,1
DA:415,1
DA:416,1
DA:417,0
DA:420,1
DA:421,1
DA:422,1
DA:423,1
DA:424,1
DA:425,0
DA:427,1
BRF:0
BRH:0
LF:273
LH:263
end_of_record
SF:/Users/mailund/Code/block-flow/blocks/src/simple_order.rs
FN:64,_RNCNvXs_NtCs8vpBMIMeQE0_6blocks12simple_orderNtB6_16SimpleOrderBlockNtNtCsftJwm24TBQa_12block_traits10block_spec9BlockSpec7execute0B8_
FN:96,_RNvNtNtCs8vpBMIMeQE0_6blocks12simple_order5testss_32init_state_returns_default_state
FN:169,_RNvNtNtCs8vpBMIMeQE0_6blocks12simple_order5testss_39intents_helper_matches_execute_behavior
FN:86,_RNvNtNtCs8vpBMIMeQE0_6blocks12simple_order5testss_42new_from_init_params_sets_block_id_default
FN:74,_RNvNtNtCs8vpBMIMeQE0_6blocks12simple_order5testss_43make_defaults_creates_unit_state_and_output
FN:140,_RNvNtNtCs8vpBMIMeQE0_6blocks12simple_order5testss_51execute_with_should_execute_false_returns_no_intent
FN:107,_RNvNtNtCs8vpBMIMeQE0_6blocks12simple_order5testss_53execute_with_should_execute_true_returns_place_intent
FN:25,_RNvMNtCs8vpBMIMeQE0_6blocks12simple_orderNtB2_16SimpleOrderBlock12place_intent
FN:38,_RNvMNtCs8vpBMIMeQE0_6blocks12simple_orderNtB2_16SimpleOrderBlock7intents
FN:34,_RNvMNtCs8vpBMIMeQE0_6blocks12simple_orderNtB2_16SimpleOrderBlock9no_intent
FN:5,_RNvXs4_NtCs8vpBMIMeQE0_6blocks12simple_orderNtB5_10OutputKeysNtNtCs6JSeF52E3eC_8channels12channel_keys11ChannelKeys13channel_names
FN:59,_RNvXs_NtCs8vpBMIMeQE0_6blocks12simple_orderNtB4_16SimpleOrderBlockNtNtCsftJwm24TBQa_12block_traits10block_spec9BlockSpec10init_state
FN:52,_RNvXs_NtCs8vpBMIMeQE0_6blocks12simple_orderNtB4_16SimpleOrderBlockNtNtCsftJwm24TBQa_12block_traits10block_spec9BlockSpec20new_from_init_params
FN:48,_RNvXs_NtCs8vpBMIMeQE0_6blocks12simple_orderNtB4_16SimpleOrderBlockNtNtCsftJwm24TBQa_12block_traits10block_spec9BlockSpec8block_id
FN:7,_RNvXsf_NtCs8vpBMIMeQE0_6blocks12simple_orderNtB5_9InputKeysINtNtCs6JSeF52E3eC_8channels12channel_keys9InputKeysNtB5_5InputE6reader
FN:25,_RNvMNtCsk8cf5WJa4A9_6blocks12simple_orderNtB2_16SimpleOrderBlock12place_intent
FN:38,_RNvMNtCsk8cf5WJa4A9_6blocks12simple_orderNtB2_16SimpleOrderBlock7intents
FN:34,_RNvMNtCsk8cf5WJa4A9_6blocks12simple_orderNtB2_16SimpleOrderBlock9no_intent
FN:5,_RNvXs4_NtCsk8cf5WJa4A9_6blocks12simple_orderNtB5_10OutputKeysNtNtCs6JSeF52E3eC_8channels12channel_keys11ChannelKeys13channel_names
FN:59,_RNvXs_NtCsk8cf5WJa4A9_6blocks12simple_orderNtB4_16SimpleOrderBlockNtNtCsftJwm24TBQa_12block_traits10block_spec9BlockSpec10init_state
FN:52,_RNvXs_NtCsk8cf5WJa4A9_6blocks12simple_orderNtB4_16SimpleOrderBlockNtNtCsftJwm24TBQa_12block_traits10block_spec9BlockSpec20new_from_init_params
FN:48,_RNvXs_NtCsk8cf5WJa4A9_6blocks12simple_orderNtB4_16SimpleOrderBlockNtNtCsftJwm24TBQa_12block_traits10block_spec9BlockSpec8block_id
FN:7,_RNvXsf_NtCsk8cf5WJa4A9_6blocks12simple_orderNtB5_9InputKeysINtNtCs6JSeF52E3eC_8channels12channel_keys9InputKeysNtB5_5InputE6reader
FN:64,_RNCNvXs_NtCsk8cf5WJa4A9_6blocks12simple_orderNtB6_16SimpleOrderBlockNtNtCsftJwm24TBQa_12block_traits10block_spec9BlockSpec7execute0B8_
FNDA:2,_RNCNvXs_NtCs8vpBMIMeQE0_6blocks12simple_orderNtB6_16SimpleOrderBlockNtNtCsftJwm24TBQa_12block_traits10block_spec9BlockSpec7execute0B8_
FNDA:1,_RNvNtNtCs8vpBMIMeQE0_6blocks12simple_order5testss_32init_state_returns_default_state
FNDA:1,_RNvNtNtCs8vpBMIMeQE0_6blocks12simple_order5testss_39intents_helper_matches_execute_behavior
FNDA:1,_RNvNtNtCs8vpBMIMeQE0_6blocks12simple_order5testss_42new_from_init_params_sets_block_id_default
FNDA:1,_RNvNtNtCs8vpBMIMeQE0_6blocks12simple_order5testss_43make_defaults_creates_unit_state_and_output
FNDA:1,_RNvNtNtCs8vpBMIMeQE0_6blocks12simple_order5testss_51execute_with_should_execute_false_returns_no_intent
FNDA:1,_RNvNtNtCs8vpBMIMeQE0_6blocks12simple_order5testss_53execute_with_should_execute_true_returns_place_intent
FNDA:2,_RNvMNtCs8vpBMIMeQE0_6blocks12simple_orderNtB2_16SimpleOrderBlock12place_intent
FNDA:4,_RNvMNtCs8vpBMIMeQE0_6blocks12simple_orderNtB2_16SimpleOrderBlock7intents
FNDA:2,_RNvMNtCs8vpBMIMeQE0_6blocks12simple_orderNtB2_16SimpleOrderBlock9no_intent
FNDA:0,_RNvXs4_NtCs8vpBMIMeQE0_6blocks12simple_orderNtB5_10OutputKeysNtNtCs6JSeF52E3eC_8channels12channel_keys11ChannelKeys13channel_names
FNDA:1,_RNvXs_NtCs8vpBMIMeQE0_6blocks12simple_orderNtB4_16SimpleOrderBlockNtNtCsftJwm24TBQa_12block_traits10block_spec9BlockSpec10init_state
FNDA:1,_RNvXs_NtCs8vpBMIMeQE0_6blocks12simple_orderNtB4_16SimpleOrderBlockNtNtCsftJwm24TBQa_12block_traits10block_spec9BlockSpec20new_from_init_params
FNDA:1,_RNvXs_NtCs8vpBMIMeQE0_6blocks12simple_orderNtB4_16SimpleOrderBlockNtNtCsftJwm24TBQa_12block_traits10block_spec9BlockSpec8block_id
FNDA:0,_RNvXsf_NtCs8vpBMIMeQE0_6blocks12simple_orderNtB5_9InputKeysINtNtCs6JSeF52E3eC_8channels12channel_keys9InputKeysNtB5_5InputE6reader
FNDA:0,_RNvMNtCsk8cf5WJa4A9_6blocks12simple_orderNtB2_16SimpleOrderBlock12place_intent
FNDA:0,_RNvMNtCsk8cf5WJa4A9_6blocks12simple_orderNtB2_16SimpleOrderBlock7intents
FNDA:0,_RNvMNtCsk8cf5WJa4A9_6blocks12simple_orderNtB2_16SimpleOrderBlock9no_intent
FNDA:1,_RNvXs4_NtCsk8cf5WJa4A9_6blocks12simple_orderNtB5_10OutputKeysNtNtCs6JSeF52E3eC_8channels12channel_keys11ChannelKeys13channel_names
FNDA:1,_RNvXs_NtCsk8cf5WJa4A9_6blocks12simple_orderNtB4_16SimpleOrderBlockNtNtCsftJwm24TBQa_12block_traits10block_spec9BlockSpec10init_state
FNDA:1,_RNvXs_NtCsk8cf5WJa4A9_6blocks12simple_orderNtB4_16SimpleOrderBlockNtNtCsftJwm24TBQa_12block_traits10block_spec9BlockSpec20new_from_init_params
FNDA:0,_RNvXs_NtCsk8cf5WJa4A9_6blocks12simple_orderNtB4_16SimpleOrderBlockNtNtCsftJwm24TBQa_12block_traits10block_spec9BlockSpec8block_id
FNDA:0,_RNvXsf_NtCsk8cf5WJa4A9_6blocks12simple_orderNtB5_9InputKeysINtNtCs6JSeF52E3eC_8channels12channel_keys9InputKeysNtB5_5InputE6reader
FNDA:0,_RNCNvXs_NtCsk8cf5WJa4A9_6blocks12simple_orderNtB6_16SimpleOrderBlockNtNtCsftJwm24TBQa_12block_traits10block_spec9BlockSpec7execute0B8_
FNF:15
FNH:14
DA:5,1
DA:7,0
DA:25,2
DA:26,2
DA:27,2
DA:28,2
DA:29,2
DA:30,2
DA:32,2
DA:34,2
DA:35,2
DA:36,2
DA:38,4
DA:39,4
DA:40,2
DA:42,2
DA:44,4
DA:48,1
DA:49,1
DA:50,1
DA:52,2
DA:53,2
DA:54,2
DA:55,2
DA:56,2
DA:57,2
DA:59,2
DA:60,2
DA:61,2
DA:64,2
DA:65,2
DA:74,1
DA:75,1
DA:76,1
DA:78,1
DA:79,1
DA:81,1
DA:82,1
DA:83,1
DA:86,1
DA:87,1
DA:88,1
DA:90,1
DA:92,1
DA:93,1
DA:96,1
DA:97,1
DA:98,1
DA:99,1
DA:100,1
DA:102,1
DA:103,1
DA:104,1
DA:107,1
DA:108,1
DA:109,1
DA:110,1
DA:111,1
DA:112,1
DA:114,1
DA:115,1
DA:117,1
DA:118,1
DA:119,1
DA:120,1
DA:121,1
DA:122,1
DA:123,1
DA:125,1
DA:126,1
DA:128,1
DA:129,1
DA:131,1
DA:134,0
DA:137,1
DA:140,1
DA:141,1
DA:142,1
DA:143,1
DA:144,1
DA:146,1
DA:147,1
DA:149,1
DA:150,1
DA:151,1
DA:152,1
DA:153,1
DA:154,1
DA:155,1
DA:157,1
DA:158,1
DA:160,1
DA:161,1
DA:163,0
DA:166,1
DA:169,1
DA:170,1
DA:171,1
DA:172,1
DA:173,1
DA:175,1
DA:176,1
DA:178,1
DA:179,1
DA:181,1
DA:182,1
DA:183,1
BRF:0
BRH:0
LF:107
LH:104
end_of_record
SF:/Users/mailund/Code/block-flow/channels/src/errors.rs
FN:16,_RNvXNtCs6hdUIowAMAo_8channels6errorsNtB2_13RegistryErrorNtNtCskzPJi2J8k3N_4core3fmt7Display3fmt
FN:48,_RNvNtNtCs6hdUIowAMAo_8channels6errors5testss_21display_key_not_found
FN:72,_RNvNtNtCs6hdUIowAMAo_8channels6errors5testss_21display_type_mismatch
FN:54,_RNvNtNtCs6hdUIowAMAo_8channels6errors5testss_22display_cycle_detected
FN:66,_RNvNtNtCs6hdUIowAMAo_8channels6errors5testss_24display_missing_producer
FN:60,_RNvNtNtCs6hdUIowAMAo_8channels6errors5testss_28display_duplicate_output_key
FN:85,_RNvNtNtCs6hdUIowAMAo_8channels6errors5testss_29debug_and_partial_eq_are_sane
FNDA:5,_RNvXNtCs6hdUIowAMAo_8channels6errorsNtB2_13RegistryErrorNtNtCskzPJi2J8k3N_4core3fmt7Display3fmt
FNDA:1,_RNvNtNtCs6hdUIowAMAo_8channels6errors5testss_21display_key_not_found
FNDA:1,_RNvNtNtCs6hdUIowAMAo_8channels6errors5testss_21display_type_mismatch
FNDA:1,_RNvNtNtCs6hdUIowAMAo_8channels6errors5testss_22display_cycle_detected
FNDA:1,_RNvNtNtCs6hdUIowAMAo_8channels6errors5testss_24display_missing_producer
FNDA:1,_RNvNtNtCs6hdUIowAMAo_8channels6errors5testss_28display_duplicate_output_key
FNDA:1,_RNvNtNtCs6hdUIowAMAo_8channels6errors5testss_29debug_and_partial_eq_are_sane
FNF:7
FNH:7
DA:16,5
DA:17,5
DA:18,1
DA:19,1
DA:20,1
DA:22,1
DA:23,1
DA:25,1
DA:26,1
DA:29,1
DA:30,1
DA:31,1
DA:32,1
DA:33,1
DA:34,1
DA:38,5
DA:48,1
DA:49,1
DA:50,1
DA:51,1
DA:54,1
DA:55,1
DA:56,1
DA:57,1
DA:60,1
DA:61,1
DA:62,1
DA:63,1
DA:66,1
DA:67,1
DA:68,1
DA:69,1
DA:72,1
DA:73,1
DA:74,1
DA:75,1
DA:76,1
DA:77,1
DA:78,1
DA:79,1
DA:82,1
DA:85,1
DA:86,1
DA:87,1
DA:88,1
DA:89,1
DA:90,1
DA:92,1
DA:93,1
DA:94,1
BRF:0
BRH:0
LF:50
LH:50
end_of_record
SF:/Users/mailund/Code/block-flow/channels/src/lib.rs
FN:14,_RNvNtCs6hdUIowAMAo_8channels5testss_16test_put_and_get
FN:62,_RNvNtCs6hdUIowAMAo_8channels5testss_19test_ensure_new_key
FN:47,_RNvNtCs6hdUIowAMAo_8channels5testss_19test_get_wrong_type
FN:104,_RNvNtCs6hdUIowAMAo_8channels5testss_19test_mutable_access
FN:26,_RNvNtCs6hdUIowAMAo_8channels5testss_23test_put_and_get_string
FN:74,_RNvNtCs6hdUIowAMAo_8channels5testss_24test_ensure_existing_key
FN:36,_RNvNtCs6hdUIowAMAo_8channels5testss_24test_get_nonexistent_key
FN:121,_RNvNtCs6hdUIowAMAo_8channels5testss_24test_multiple_references
FN:91,_RNvNtCs6hdUIowAMAo_8channels5testss_31test_ensure_with_custom_default
FNDA:1,_RNvNtCs6hdUIowAMAo_8channels5testss_16test_put_and_get
FNDA:1,_RNvNtCs6hdUIowAMAo_8channels5testss_19test_ensure_new_key
FNDA:1,_RNvNtCs6hdUIowAMAo_8channels5testss_19test_get_wrong_type
FNDA:1,_RNvNtCs6hdUIowAMAo_8channels5testss_19test_mutable_access
FNDA:1,_RNvNtCs6hdUIowAMAo_8channels5testss_23test_put_and_get_string
FNDA:1,_RNvNtCs6hdUIowAMAo_8channels5testss_24test_ensure_existing_key
FNDA:1,_RNvNtCs6hdUIowAMAo_8channels5testss_24test_get_nonexistent_key
FNDA:1,_RNvNtCs6hdUIowAMAo_8channels5testss_24test_multiple_references
FNDA:1,_RNvNtCs6hdUIowAMAo_8channels5testss_31test_ensure_with_custom_default
FNF:9
FNH:9
DA:14,1
DA:15,1
DA:18,1
DA:21,1
DA:22,1
DA:23,1
DA:26,1
DA:27,1
DA:29,1
DA:31,1
DA:32,1
DA:33,1
DA:36,1
DA:37,1
DA:39,1
DA:40,1
DA:42,1
DA:44,1
DA:47,1
DA:48,1
DA:50,1
DA:52,1
DA:53,1
DA:54,1
DA:55,1
DA:57,0
DA:59,1
DA:62,1
DA:63,1
DA:65,1
DA:66,1
DA:69,1
DA:70,1
DA:71,1
DA:74,1
DA:75,1
DA:77,1
DA:79,1
DA:80,1
DA:83,1
DA:86,1
DA:87,1
DA:88,1
DA:91,1
DA:92,1
DA:99,1
DA:100,1
DA:101,1
DA:104,1
DA:105,1
DA:107,1
DA:109,1
DA:110,1
DA:113,1
DA:116,1
DA:117,1
DA:118,1
DA:121,1
DA:122,1
DA:124,1
DA:126,1
DA:127,1
DA:130,1
DA:131,1
DA:134,1
DA:137,1
DA:138,1
BRF:0
BRH:0
LF:67
LH:66
end_of_record
SF:/Users/mailund/Code/block-flow/channels/src/registry.rs
FN:33,_RINvMNtCs6JSeF52E3eC_8channels8registryNtB3_15ChannelRegistry3getlRNtNtCsganj50Cd8Gx_5alloc6string6StringECsb4HXwg7kb3v_12block_traits
FN:33,_RINvMNtCs6JSeF52E3eC_8channels8registryNtB3_15ChannelRegistry3getlReECsb4HXwg7kb3v_12block_traits
FN:27,_RINvMNtCs6JSeF52E3eC_8channels8registryNtB3_15ChannelRegistry3putlReECsb4HXwg7kb3v_12block_traits
FN:56,_RINvMNtCs6JSeF52E3eC_8channels8registryNtB3_15ChannelRegistry6ensurelRNtNtCsganj50Cd8Gx_5alloc6string6StringECsb4HXwg7kb3v_12block_traits
FN:43,_RNCINvMNtCs6JSeF52E3eC_8channels8registryNtB5_15ChannelRegistry3getlRNtNtCsganj50Cd8Gx_5alloc6string6StringE0Csb4HXwg7kb3v_12block_traits
FN:43,_RNCINvMNtCs6JSeF52E3eC_8channels8registryNtB5_15ChannelRegistry3getlReE0Csb4HXwg7kb3v_12block_traits
FN:15,_RNvMNtCs6JSeF52E3eC_8channels8registryNtB2_15ChannelRegistry3new
FN:72,_RNvXs_NtCs6JSeF52E3eC_8channels8registryNtB4_15ChannelRegistryNtNtCskzPJi2J8k3N_4core7default7Default7default
FN:33,_RINvMNtCs6JSeF52E3eC_8channels8registryNtB3_15ChannelRegistry3getbRNtNtCsganj50Cd8Gx_5alloc6string6StringECs8vpBMIMeQE0_6blocks
FN:33,_RINvMNtCs6JSeF52E3eC_8channels8registryNtB3_15ChannelRegistry3getbReECs8vpBMIMeQE0_6blocks
FN:56,_RINvMNtCs6JSeF52E3eC_8channels8registryNtB3_15ChannelRegistry6ensurebRNtNtCsganj50Cd8Gx_5alloc6string6StringECs8vpBMIMeQE0_6blocks
FN:43,_RNCINvMNtCs6JSeF52E3eC_8channels8registryNtB5_15ChannelRegistry3getbRNtNtCsganj50Cd8Gx_5alloc6string6StringE0Cs8vpBMIMeQE0_6blocks
FN:43,_RNCINvMNtCs6JSeF52E3eC_8channels8registryNtB5_15ChannelRegistry3getbReE0Cs8vpBMIMeQE0_6blocks
FN:15,_RNvMNtCs6hdUIowAMAo_8channels8registryNtB2_15ChannelRegistry3new
FN:33,_RINvMNtCs6hdUIowAMAo_8channels8registryNtB3_15ChannelRegistry3getINtNtCsganj50Cd8Gx_5alloc3vec3VeclEReEB5_
FN:33,_RINvMNtCs6hdUIowAMAo_8channels8registryNtB3_15ChannelRegistry3getNtNtCsganj50Cd8Gx_5alloc6string6StringReEB5_
FN:33,_RINvMNtCs6hdUIowAMAo_8channels8registryNtB3_15ChannelRegistry3getNtNvNtB5_5testss_31test_ensure_with_custom_default12CustomStructRNtNtCsganj50Cd8Gx_5alloc6string6StringEB5_
FN:33,_RINvMNtCs6hdUIowAMAo_8channels8registryNtB3_15ChannelRegistry3getlRNtNtCsganj50Cd8Gx_5alloc6string6StringEB5_
FN:33,_RINvMNtCs6hdUIowAMAo_8channels8registryNtB3_15ChannelRegistry3getlReEB5_
FN:27,_RINvMNtCs6hdUIowAMAo_8channels8registryNtB3_15ChannelRegistry3putINtNtCsganj50Cd8Gx_5alloc3vec3VeclEReEB5_
FN:27,_RINvMNtCs6hdUIowAMAo_8channels8registryNtB3_15ChannelRegistry3putNtNtCsganj50Cd8Gx_5alloc6string6StringReEB5_
FN:27,_RINvMNtCs6hdUIowAMAo_8channels8registryNtB3_15ChannelRegistry3putlReEB5_
FN:56,_RINvMNtCs6hdUIowAMAo_8channels8registryNtB3_15ChannelRegistry6ensureNtNvNtB5_5testss_31test_ensure_with_custom_default12CustomStructReEB5_
FN:56,_RINvMNtCs6hdUIowAMAo_8channels8registryNtB3_15ChannelRegistry6ensurelReEB5_
FN:43,_RNCINvMNtCs6hdUIowAMAo_8channels8registryNtB5_15ChannelRegistry3getINtNtCsganj50Cd8Gx_5alloc3vec3VeclEReE0B7_
FN:43,_RNCINvMNtCs6hdUIowAMAo_8channels8registryNtB5_15ChannelRegistry3getNtNtCsganj50Cd8Gx_5alloc6string6StringReE0B7_
FN:43,_RNCINvMNtCs6hdUIowAMAo_8channels8registryNtB5_15ChannelRegistry3getNtNvNtB7_5testss_31test_ensure_with_custom_default12CustomStructRNtNtCsganj50Cd8Gx_5alloc6string6StringE0B7_
FN:43,_RNCINvMNtCs6hdUIowAMAo_8channels8registryNtB5_15ChannelRegistry3getlRNtNtCsganj50Cd8Gx_5alloc6string6StringE0B7_
FN:43,_RNCINvMNtCs6hdUIowAMAo_8channels8registryNtB5_15ChannelRegistry3getlReE0B7_
FN:21,_RINvMNtCs6hdUIowAMAo_8channels8registryNtB3_15ChannelRegistry3haspEB5_
FN:72,_RNvXs_NtCs6hdUIowAMAo_8channels8registryNtB4_15ChannelRegistryNtNtCskzPJi2J8k3N_4core7default7Default7default
FN:21,_RINvMNtCs6JSeF52E3eC_8channels8registryNtB3_15ChannelRegistry3hasRNtNtCsganj50Cd8Gx_5alloc6string6StringECsddPsN7W6Kwt_5weave
FN:33,_RINvMNtCs6JSeF52E3eC_8channels8registryNtB3_15ChannelRegistry3getbRNtNtCsganj50Cd8Gx_5alloc6string6StringECsk8cf5WJa4A9_6blocks
FN:56,_RINvMNtCs6JSeF52E3eC_8channels8registryNtB3_15ChannelRegistry6ensurebRNtNtCsganj50Cd8Gx_5alloc6string6StringECsk8cf5WJa4A9_6blocks
FN:43,_RNCINvMNtCs6JSeF52E3eC_8channels8registryNtB5_15ChannelRegistry3getbRNtNtCsganj50Cd8Gx_5alloc6string6StringE0Csk8cf5WJa4A9_6blocks
FNDA:14,_RINvMNtCs6JSeF52E3eC_8channels8registryNtB3_15ChannelRegistry3getlRNtNtCsganj50Cd8Gx_5alloc6string6StringECsb4HXwg7kb3v_12block_traits
FNDA:3,_RINvMNtCs6JSeF52E3eC_8channels8registryNtB3_15ChannelRegistry3getlReECsb4HXwg7kb3v_12block_traits
FNDA:4,_RINvMNtCs6JSeF52E3eC_8channels8registryNtB3_15ChannelRegistry3putlReECsb4HXwg7kb3v_12block_traits
FNDA:5,_RINvMNtCs6JSeF52E3eC_8channels8registryNtB3_15ChannelRegistry6ensurelRNtNtCsganj50Cd8Gx_5alloc6string6StringECsb4HXwg7kb3v_12block_traits
FNDA:0,_RNCINvMNtCs6JSeF52E3eC_8channels8registryNtB5_15ChannelRegistry3getlRNtNtCsganj50Cd8Gx_5alloc6string6StringE0Csb4HXwg7kb3v_12block_traits
FNDA:0,_RNCINvMNtCs6JSeF52E3eC_8channels8registryNtB5_15ChannelRegistry3getlReE0Csb4HXwg7kb3v_12block_traits
FNDA:8,_RNvMNtCs6JSeF52E3eC_8channels8registryNtB2_15ChannelRegistry3new
FNDA:8,_RNvXs_NtCs6JSeF52E3eC_8channels8registryNtB4_15ChannelRegistryNtNtCskzPJi2J8k3N_4core7default7Default7default
FNDA:3,_RINvMNtCs6JSeF52E3eC_8channels8registryNtB3_15ChannelRegistry3getbRNtNtCsganj50Cd8Gx_5alloc6string6StringECs8vpBMIMeQE0_6blocks
FNDA:1,_RINvMNtCs6JSeF52E3eC_8channels8registryNtB3_15ChannelRegistry3getbReECs8vpBMIMeQE0_6blocks
FNDA:1,_RINvMNtCs6JSeF52E3eC_8channels8registryNtB3_15ChannelRegistry6ensurebRNtNtCsganj50Cd8Gx_5alloc6string6StringECs8vpBMIMeQE0_6blocks
FNDA:0,_RNCINvMNtCs6JSeF52E3eC_8channels8registryNtB5_15ChannelRegistry3getbRNtNtCsganj50Cd8Gx_5alloc6string6StringE0Cs8vpBMIMeQE0_6blocks
FNDA:0,_RNCINvMNtCs6JSeF52E3eC_8channels8registryNtB5_15ChannelRegistry3getbReE0Cs8vpBMIMeQE0_6blocks
FNDA:9,_RNvMNtCs6hdUIowAMAo_8channels8registryNtB2_15ChannelRegistry3new
FNDA:2,_RINvMNtCs6hdUIowAMAo_8channels8registryNtB3_15ChannelRegistry3getINtNtCsganj50Cd8Gx_5alloc3vec3VeclEReEB5_
FNDA:2,_RINvMNtCs6hdUIowAMAo_8channels8registryNtB3_15ChannelRegistry3getNtNtCsganj50Cd8Gx_5alloc6string6StringReEB5_
FNDA:1,_RINvMNtCs6hdUIowAMAo_8channels8registryNtB3_15ChannelRegistry3getNtNvNtB5_5testss_31test_ensure_with_custom_default12CustomStructRNtNtCsganj50Cd8Gx_5alloc6string6StringEB5_
FNDA:2,_RINvMNtCs6hdUIowAMAo_8channels8registryNtB3_15ChannelRegistry3getlRNtNtCsganj50Cd8Gx_5alloc6string6StringEB5_
FNDA:6,_RINvMNtCs6hdUIowAMAo_8channels8registryNtB3_15ChannelRegistry3getlReEB5_
FNDA:1,_RINvMNtCs6hdUIowAMAo_8channels8registryNtB3_15ChannelRegistry3putINtNtCsganj50Cd8Gx_5alloc3vec3VeclEReEB5_
FNDA:1,_RINvMNtCs6hdUIowAMAo_8channels8registryNtB3_15ChannelRegistry3putNtNtCsganj50Cd8Gx_5alloc6string6StringReEB5_
FNDA:4,_RINvMNtCs6hdUIowAMAo_8channels8registryNtB3_15ChannelRegistry3putlReEB5_
FNDA:1,_RINvMNtCs6hdUIowAMAo_8channels8registryNtB3_15ChannelRegistry6ensureNtNvNtB5_5testss_31test_ensure_with_custom_default12CustomStructReEB5_
FNDA:2,_RINvMNtCs6hdUIowAMAo_8channels8registryNtB3_15ChannelRegistry6ensurelReEB5_
FNDA:0,_RNCINvMNtCs6hdUIowAMAo_8channels8registryNtB5_15ChannelRegistry3getINtNtCsganj50Cd8Gx_5alloc3vec3VeclEReE0B7_
FNDA:1,_RNCINvMNtCs6hdUIowAMAo_8channels8registryNtB5_15ChannelRegistry3getNtNtCsganj50Cd8Gx_5alloc6string6StringReE0B7_
FNDA:0,_RNCINvMNtCs6hdUIowAMAo_8channels8registryNtB5_15ChannelRegistry3getNtNvNtB7_5testss_31test_ensure_with_custom_default12CustomStructRNtNtCsganj50Cd8Gx_5alloc6string6StringE0B7_
FNDA:0,_RNCINvMNtCs6hdUIowAMAo_8channels8registryNtB5_15ChannelRegistry3getlRNtNtCsganj50Cd8Gx_5alloc6string6StringE0B7_
FNDA:0,_RNCINvMNtCs6hdUIowAMAo_8channels8registryNtB5_15ChannelRegistry3getlReE0B7_
FNDA:0,_RINvMNtCs6hdUIowAMAo_8channels8registryNtB3_15ChannelRegistry3haspEB5_
FNDA:0,_RNvXs_NtCs6hdUIowAMAo_8channels8registryNtB4_15ChannelRegistryNtNtCskzPJi2J8k3N_4core7default7Default7default
FNDA:0,_RINvMNtCs6JSeF52E3eC_8channels8registryNtB3_15ChannelRegistry3hasRNtNtCsganj50Cd8Gx_5alloc6string6StringECsddPsN7W6Kwt_5weave
FNDA:3,_RINvMNtCs6JSeF52E3eC_8channels8registryNtB3_15ChannelRegistry3getbRNtNtCsganj50Cd8Gx_5alloc6string6StringECsk8cf5WJa4A9_6blocks
FNDA:1,_RINvMNtCs6JSeF52E3eC_8channels8registryNtB3_15ChannelRegistry6ensurebRNtNtCsganj50Cd8Gx_5alloc6string6StringECsk8cf5WJa4A9_6blocks
FNDA:0,_RNCINvMNtCs6JSeF52E3eC_8channels8registryNtB5_15ChannelRegistry3getbRNtNtCsganj50Cd8Gx_5alloc6string6StringE0Csk8cf5WJa4A9_6blocks
FNF:7
FNH:6
DA:15,17
DA:16,17
DA:17,17
DA:18,17
DA:19,17
DA:21,0
DA:22,0
DA:23,0
DA:24,0
DA:27,10
DA:28,10
DA:29,10
DA:30,10
DA:33,37
DA:34,37
DA:35,37
DA:36,37
DA:37,37
DA:39,37
DA:40,26
DA:43,26
DA:44,1
DA:45,1
DA:46,1
DA:47,1
DA:48,1
DA:49,1
DA:51,11
DA:53,37
DA:56,10
DA:57,10
DA:60,10
DA:61,1
DA:62,9
DA:65,9
DA:66,9
DA:67,9
DA:68,10
DA:72,8
DA:73,8
DA:74,8
BRF:0
BRH:0
LF:42
LH:38
end_of_record
SF:/Users/mailund/Code/block-flow/execution-plan/src/lib.rs
FN:26,_RNCNvMCsat0Jsi6X9CS_14execution_planNtB4_13ExecutionPlan7execute0B4_
FN:13,_RNvMCsat0Jsi6X9CS_14execution_planNtB2_13ExecutionPlan3new
FN:17,_RNvMCsat0Jsi6X9CS_14execution_planNtB2_13ExecutionPlan6blocks
FN:21,_RNvMCsat0Jsi6X9CS_14execution_planNtB2_13ExecutionPlan7execute
FNDA:0,_RNCNvMCsat0Jsi6X9CS_14execution_planNtB4_13ExecutionPlan7execute0B4_
FNDA:0,_RNvMCsat0Jsi6X9CS_14execution_planNtB2_13ExecutionPlan3new
FNDA:0,_RNvMCsat0Jsi6X9CS_14execution_planNtB2_13ExecutionPlan6blocks
FNDA:0,_RNvMCsat0Jsi6X9CS_14execution_planNtB2_13ExecutionPlan7execute
FNF:4
FNH:0
DA:13,0
DA:14,0
DA:15,0
DA:17,0
DA:18,0
DA:19,0
DA:21,0
DA:24,0
DA:25,0
DA:26,0
DA:27,0
DA:28,0
BRF:0
BRH:0
LF:13
LH:0
end_of_record
SF:/Users/mailund/Code/block-flow/intents/src/block_intents.rs
FN:19,_RNCNvYNtNtCsS0chBNUBrq_7intents13block_intents11ZeroIntentsNtB6_12BlockIntents15as_slot_intents0Csb4HXwg7kb3v_12block_traits
FN:15,_RNvYNtNtCsS0chBNUBrq_7intents13block_intents11ZeroIntentsNtB4_12BlockIntents15as_slot_intentsCsb4HXwg7kb3v_12block_traits
FN:42,_RNvMNtCsS0chBNUBrq_7intents13block_intentsNtB2_11ZeroIntents10from_array
FN:39,_RNvMNtCsS0chBNUBrq_7intents13block_intentsNtB2_11ZeroIntents3new
FN:71,_RNvMs4_NtCsS0chBNUBrq_7intents13block_intentsNtB5_9OneIntent10from_array
FN:68,_RNvMs4_NtCsS0chBNUBrq_7intents13block_intentsNtB5_9OneIntent3new
FN:71,_RNvMsa_NtCsS0chBNUBrq_7intents13block_intentsNtB5_10TwoIntents10from_array
FN:68,_RNvMsa_NtCsS0chBNUBrq_7intents13block_intentsNtB5_10TwoIntents3new
FN:71,_RNvMsg_NtCsS0chBNUBrq_7intents13block_intentsNtB5_12ThreeIntents10from_array
FN:68,_RNvMsg_NtCsS0chBNUBrq_7intents13block_intentsNtB5_12ThreeIntents3new
FN:71,_RNvMsm_NtCsS0chBNUBrq_7intents13block_intentsNtB5_11FourIntents10from_array
FN:68,_RNvMsm_NtCsS0chBNUBrq_7intents13block_intentsNtB5_11FourIntents3new
FN:71,_RNvMss_NtCsS0chBNUBrq_7intents13block_intentsNtB5_11FiveIntents10from_array
FN:68,_RNvMss_NtCsS0chBNUBrq_7intents13block_intentsNtB5_11FiveIntents3new
FN:57,_RNvXs1_NtCsS0chBNUBrq_7intents13block_intentsNtB5_11ZeroIntentsNtB5_12BlockIntents8as_slice
FN:77,_RNvXs5_NtCsS0chBNUBrq_7intents13block_intentsNtB5_9OneIntentNtNtCskzPJi2J8k3N_4core7default7Default7default
FN:86,_RNvXs7_NtCsS0chBNUBrq_7intents13block_intentsNtB5_9OneIntentNtB5_12BlockIntents8as_slice
FN:48,_RNvXs_NtCsS0chBNUBrq_7intents13block_intentsNtB4_11ZeroIntentsNtNtCskzPJi2J8k3N_4core7default7Default7default
FN:77,_RNvXsb_NtCsS0chBNUBrq_7intents13block_intentsNtB5_10TwoIntentsNtNtCskzPJi2J8k3N_4core7default7Default7default
FN:86,_RNvXsd_NtCsS0chBNUBrq_7intents13block_intentsNtB5_10TwoIntentsNtB5_12BlockIntents8as_slice
FN:77,_RNvXsh_NtCsS0chBNUBrq_7intents13block_intentsNtB5_12ThreeIntentsNtNtCskzPJi2J8k3N_4core7default7Default7default
FN:86,_RNvXsj_NtCsS0chBNUBrq_7intents13block_intentsNtB5_12ThreeIntentsNtB5_12BlockIntents8as_slice
FN:77,_RNvXsn_NtCsS0chBNUBrq_7intents13block_intentsNtB5_11FourIntentsNtNtCskzPJi2J8k3N_4core7default7Default7default
FN:86,_RNvXsp_NtCsS0chBNUBrq_7intents13block_intentsNtB5_11FourIntentsNtB5_12BlockIntents8as_slice
FN:77,_RNvXst_NtCsS0chBNUBrq_7intents13block_intentsNtB5_11FiveIntentsNtNtCskzPJi2J8k3N_4core7default7Default7default
FN:86,_RNvXsv_NtCsS0chBNUBrq_7intents13block_intentsNtB5_11FiveIntentsNtB5_12BlockIntents8as_slice
FN:19,_RNCNvYpNtNtCsS0chBNUBrq_7intents13block_intents12BlockIntents15as_slot_intents0B9_
FN:15,_RNvYpNtNtCsS0chBNUBrq_7intents13block_intents12BlockIntents15as_slot_intentsB7_
FN:11,_RNvYpNtNtCsS0chBNUBrq_7intents13block_intents12BlockIntents3lenB7_
FN:78,_RNCNvXs5_NtCsS0chBNUBrq_7intents13block_intentsNtB7_9OneIntentNtNtCskzPJi2J8k3N_4core7default7Default7default0B9_
FN:78,_RNCNvXsb_NtCsS0chBNUBrq_7intents13block_intentsNtB7_10TwoIntentsNtNtCskzPJi2J8k3N_4core7default7Default7default0B9_
FN:78,_RNCNvXsh_NtCsS0chBNUBrq_7intents13block_intentsNtB7_12ThreeIntentsNtNtCskzPJi2J8k3N_4core7default7Default7default0B9_
FN:78,_RNCNvXsn_NtCsS0chBNUBrq_7intents13block_intentsNtB7_11FourIntentsNtNtCskzPJi2J8k3N_4core7default7Default7default0B9_
FN:78,_RNCNvXst_NtCsS0chBNUBrq_7intents13block_intentsNtB7_11FiveIntentsNtNtCskzPJi2J8k3N_4core7default7Default7default0B9_
FN:19,_RNCNvYNtNtCsS0chBNUBrq_7intents13block_intents11ZeroIntentsNtB6_12BlockIntents15as_slot_intents0Cs8vpBMIMeQE0_6blocks
FN:19,_RNCNvYNtNtCsS0chBNUBrq_7intents13block_intents9OneIntentNtB6_12BlockIntents15as_slot_intents0Cs8vpBMIMeQE0_6blocks
FN:15,_RNvYNtNtCsS0chBNUBrq_7intents13block_intents11ZeroIntentsNtB4_12BlockIntents15as_slot_intentsCs8vpBMIMeQE0_6blocks
FN:15,_RNvYNtNtCsS0chBNUBrq_7intents13block_intents9OneIntentNtB4_12BlockIntents15as_slot_intentsCs8vpBMIMeQE0_6blocks
FN:78,_RNCNvXs5_NtCsjhUrvNWWn5d_7intents13block_intentsNtB7_9OneIntentNtNtCskzPJi2J8k3N_4core7default7Default7default0B9_
FN:78,_RNCNvXsb_NtCsjhUrvNWWn5d_7intents13block_intentsNtB7_10TwoIntentsNtNtCskzPJi2J8k3N_4core7default7Default7default0B9_
FN:78,_RNCNvXsh_NtCsjhUrvNWWn5d_7intents13block_intentsNtB7_12ThreeIntentsNtNtCskzPJi2J8k3N_4core7default7Default7default0B9_
FN:78,_RNCNvXsn_NtCsjhUrvNWWn5d_7intents13block_intentsNtB7_11FourIntentsNtNtCskzPJi2J8k3N_4core7default7Default7default0B9_
FN:78,_RNCNvXst_NtCsjhUrvNWWn5d_7intents13block_intentsNtB7_11FiveIntentsNtNtCskzPJi2J8k3N_4core7default7Default7default0B9_
FN:19,_RNCNvYpNtNtCsjhUrvNWWn5d_7intents13block_intents12BlockIntents15as_slot_intents0B9_
FN:42,_RNvMNtCsjhUrvNWWn5d_7intents13block_intentsNtB2_11ZeroIntents10from_array
FN:39,_RNvMNtCsjhUrvNWWn5d_7intents13block_intentsNtB2_11ZeroIntents3new
FN:71,_RNvMs4_NtCsjhUrvNWWn5d_7intents13block_intentsNtB5_9OneIntent10from_array
FN:68,_RNvMs4_NtCsjhUrvNWWn5d_7intents13block_intentsNtB5_9OneIntent3new
FN:71,_RNvMsa_NtCsjhUrvNWWn5d_7intents13block_intentsNtB5_10TwoIntents10from_array
FN:68,_RNvMsa_NtCsjhUrvNWWn5d_7intents13block_intentsNtB5_10TwoIntents3new
FN:71,_RNvMsg_NtCsjhUrvNWWn5d_7intents13block_intentsNtB5_12ThreeIntents10from_array
FN:68,_RNvMsg_NtCsjhUrvNWWn5d_7intents13block_intentsNtB5_12ThreeIntents3new
FN:71,_RNvMsm_NtCsjhUrvNWWn5d_7intents13block_intentsNtB5_11FourIntents10from_array
FN:68,_RNvMsm_NtCsjhUrvNWWn5d_7intents13block_intentsNtB5_11FourIntents3new
FN:71,_RNvMss_NtCsjhUrvNWWn5d_7intents13block_intentsNtB5_11FiveIntents10from_array
FN:68,_RNvMss_NtCsjhUrvNWWn5d_7intents13block_intentsNtB5_11FiveIntents3new
FN:57,_RNvXs1_NtCsjhUrvNWWn5d_7intents13block_intentsNtB5_11ZeroIntentsNtB5_12BlockIntents8as_slice
FN:77,_RNvXs5_NtCsjhUrvNWWn5d_7intents13block_intentsNtB5_9OneIntentNtNtCskzPJi2J8k3N_4core7default7Default7default
FN:86,_RNvXs7_NtCsjhUrvNWWn5d_7intents13block_intentsNtB5_9OneIntentNtB5_12BlockIntents8as_slice
FN:48,_RNvXs_NtCsjhUrvNWWn5d_7intents13block_intentsNtB4_11ZeroIntentsNtNtCskzPJi2J8k3N_4core7default7Default7default
FN:77,_RNvXsb_NtCsjhUrvNWWn5d_7intents13block_intentsNtB5_10TwoIntentsNtNtCskzPJi2J8k3N_4core7default7Default7default
FN:86,_RNvXsd_NtCsjhUrvNWWn5d_7intents13block_intentsNtB5_10TwoIntentsNtB5_12BlockIntents8as_slice
FN:77,_RNvXsh_NtCsjhUrvNWWn5d_7intents13block_intentsNtB5_12ThreeIntentsNtNtCskzPJi2J8k3N_4core7default7Default7default
FN:86,_RNvXsj_NtCsjhUrvNWWn5d_7intents13block_intentsNtB5_12ThreeIntentsNtB5_12BlockIntents8as_slice
FN:77,_RNvXsn_NtCsjhUrvNWWn5d_7intents13block_intentsNtB5_11FourIntentsNtNtCskzPJi2J8k3N_4core7default7Default7default
FN:86,_RNvXsp_NtCsjhUrvNWWn5d_7intents13block_intentsNtB5_11FourIntentsNtB5_12BlockIntents8as_slice
FN:77,_RNvXst_NtCsjhUrvNWWn5d_7intents13block_intentsNtB5_11FiveIntentsNtNtCskzPJi2J8k3N_4core7default7Default7default
FN:86,_RNvXsv_NtCsjhUrvNWWn5d_7intents13block_intentsNtB5_11FiveIntentsNtB5_12BlockIntents8as_slice
FN:15,_RNvYpNtNtCsjhUrvNWWn5d_7intents13block_intents12BlockIntents15as_slot_intentsB7_
FN:11,_RNvYpNtNtCsjhUrvNWWn5d_7intents13block_intents12BlockIntents3lenB7_
FN:19,_RNCNvYNtNtCsS0chBNUBrq_7intents13block_intents11ZeroIntentsNtB6_12BlockIntents15as_slot_intents0Csk8cf5WJa4A9_6blocks
FN:19,_RNCNvYNtNtCsS0chBNUBrq_7intents13block_intents9OneIntentNtB6_12BlockIntents15as_slot_intents0Csk8cf5WJa4A9_6blocks
FN:15,_RNvYNtNtCsS0chBNUBrq_7intents13block_intents11ZeroIntentsNtB4_12BlockIntents15as_slot_intentsCsk8cf5WJa4A9_6blocks
FN:15,_RNvYNtNtCsS0chBNUBrq_7intents13block_intents9OneIntentNtB4_12BlockIntents15as_slot_intentsCsk8cf5WJa4A9_6blocks
FNDA:0,_RNCNvYNtNtCsS0chBNUBrq_7intents13block_intents11ZeroIntentsNtB6_12BlockIntents15as_slot_intents0Csb4HXwg7kb3v_12block_traits
FNDA:10,_RNvYNtNtCsS0chBNUBrq_7intents13block_intents11ZeroIntentsNtB4_12BlockIntents15as_slot_intentsCsb4HXwg7kb3v_12block_traits
FNDA:0,_RNvMNtCsS0chBNUBrq_7intents13block_intentsNtB2_11ZeroIntents10from_array
FNDA:24,_RNvMNtCsS0chBNUBrq_7intents13block_intentsNtB2_11ZeroIntents3new
FNDA:0,_RNvMs4_NtCsS0chBNUBrq_7intents13block_intentsNtB5_9OneIntent10from_array
FNDA:4,_RNvMs4_NtCsS0chBNUBrq_7intents13block_intentsNtB5_9OneIntent3new
FNDA:0,_RNvMsa_NtCsS0chBNUBrq_7intents13block_intentsNtB5_10TwoIntents10from_array
FNDA:0,_RNvMsa_NtCsS0chBNUBrq_7intents13block_intentsNtB5_10TwoIntents3new
FNDA:0,_RNvMsg_NtCsS0chBNUBrq_7intents13block_intentsNtB5_12ThreeIntents10from_array
FNDA:0,_RNvMsg_NtCsS0chBNUBrq_7intents13block_intentsNtB5_12ThreeIntents3new
FNDA:0,_RNvMsm_NtCsS0chBNUBrq_7intents13block_intentsNtB5_11FourIntents10from_array
FNDA:0,_RNvMsm_NtCsS0chBNUBrq_7intents13block_intentsNtB5_11FourIntents3new
FNDA:0,_RNvMss_NtCsS0chBNUBrq_7intents13block_intentsNtB5_11FiveIntents10from_array
FNDA:0,_RNvMss_NtCsS0chBNUBrq_7intents13block_intentsNtB5_11FiveIntents3new
FNDA:12,_RNvXs1_NtCsS0chBNUBrq_7intents13block_intentsNtB5_11ZeroIntentsNtB5_12BlockIntents8as_slice
FNDA:0,_RNvXs5_NtCsS0chBNUBrq_7intents13block_intentsNtB5_9OneIntentNtNtCskzPJi2J8k3N_4core7default7Default7default
FNDA:4,_RNvXs7_NtCsS0chBNUBrq_7intents13block_intentsNtB5_9OneIntentNtB5_12BlockIntents8as_slice
FNDA:11,_RNvXs_NtCsS0chBNUBrq_7intents13block_intentsNtB4_11ZeroIntentsNtNtCskzPJi2J8k3N_4core7default7Default7default
FNDA:0,_RNvXsb_NtCsS0chBNUBrq_7intents13block_intentsNtB5_10TwoIntentsNtNtCskzPJi2J8k3N_4core7default7Default7default
FNDA:0,_RNvXsd_NtCsS0chBNUBrq_7intents13block_intentsNtB5_10TwoIntentsNtB5_12BlockIntents8as_slice
FNDA:0,_RNvXsh_NtCsS0chBNUBrq_7intents13block_intentsNtB5_12ThreeIntentsNtNtCskzPJi2J8k3N_4core7default7Default7default
FNDA:0,_RNvXsj_NtCsS0chBNUBrq_7intents13block_intentsNtB5_12ThreeIntentsNtB5_12BlockIntents8as_slice
FNDA:0,_RNvXsn_NtCsS0chBNUBrq_7intents13block_intentsNtB5_11FourIntentsNtNtCskzPJi2J8k3N_4core7default7Default7default
FNDA:0,_RNvXsp_NtCsS0chBNUBrq_7intents13block_intentsNtB5_11FourIntentsNtB5_12BlockIntents8as_slice
FNDA:0,_RNvXst_NtCsS0chBNUBrq_7intents13block_intentsNtB5_11FiveIntentsNtNtCskzPJi2J8k3N_4core7default7Default7default
FNDA:0,_RNvXsv_NtCsS0chBNUBrq_7intents13block_intentsNtB5_11FiveIntentsNtB5_12BlockIntents8as_slice
FNDA:0,_RNCNvYpNtNtCsS0chBNUBrq_7intents13block_intents12BlockIntents15as_slot_intents0B9_
FNDA:0,_RNvYpNtNtCsS0chBNUBrq_7intents13block_intents12BlockIntents15as_slot_intentsB7_
FNDA:0,_RNvYpNtNtCsS0chBNUBrq_7intents13block_intents12BlockIntents3lenB7_
FNDA:0,_RNCNvXs5_NtCsS0chBNUBrq_7intents13block_intentsNtB7_9OneIntentNtNtCskzPJi2J8k3N_4core7default7Default7default0B9_
FNDA:0,_RNCNvXsb_NtCsS0chBNUBrq_7intents13block_intentsNtB7_10TwoIntentsNtNtCskzPJi2J8k3N_4core7default7Default7default0B9_
FNDA:0,_RNCNvXsh_NtCsS0chBNUBrq_7intents13block_intentsNtB7_12ThreeIntentsNtNtCskzPJi2J8k3N_4core7default7Default7default0B9_
FNDA:0,_RNCNvXsn_NtCsS0chBNUBrq_7intents13block_intentsNtB7_11FourIntentsNtNtCskzPJi2J8k3N_4core7default7Default7default0B9_
FNDA:0,_RNCNvXst_NtCsS0chBNUBrq_7intents13block_intentsNtB7_11FiveIntentsNtNtCskzPJi2J8k3N_4core7default7Default7default0B9_
FNDA:0,_RNCNvYNtNtCsS0chBNUBrq_7intents13block_intents11ZeroIntentsNtB6_12BlockIntents15as_slot_intents0Cs8vpBMIMeQE0_6blocks
FNDA:0,_RNCNvYNtNtCsS0chBNUBrq_7intents13block_intents9OneIntentNtB6_12BlockIntents15as_slot_intents0Cs8vpBMIMeQE0_6blocks
FNDA:2,_RNvYNtNtCsS0chBNUBrq_7intents13block_intents11ZeroIntentsNtB4_12BlockIntents15as_slot_intentsCs8vpBMIMeQE0_6blocks
FNDA:0,_RNvYNtNtCsS0chBNUBrq_7intents13block_intents9OneIntentNtB4_12BlockIntents15as_slot_intentsCs8vpBMIMeQE0_6blocks
FNDA:0,_RNCNvXs5_NtCsjhUrvNWWn5d_7intents13block_intentsNtB7_9OneIntentNtNtCskzPJi2J8k3N_4core7default7Default7default0B9_
FNDA:0,_RNCNvXsb_NtCsjhUrvNWWn5d_7intents13block_intentsNtB7_10TwoIntentsNtNtCskzPJi2J8k3N_4core7default7Default7default0B9_
FNDA:0,_RNCNvXsh_NtCsjhUrvNWWn5d_7intents13block_intentsNtB7_12ThreeIntentsNtNtCskzPJi2J8k3N_4core7default7Default7default0B9_
FNDA:0,_RNCNvXsn_NtCsjhUrvNWWn5d_7intents13block_intentsNtB7_11FourIntentsNtNtCskzPJi2J8k3N_4core7default7Default7default0B9_
FNDA:0,_RNCNvXst_NtCsjhUrvNWWn5d_7intents13block_intentsNtB7_11FiveIntentsNtNtCskzPJi2J8k3N_4core7default7Default7default0B9_
FNDA:0,_RNCNvYpNtNtCsjhUrvNWWn5d_7intents13block_intents12BlockIntents15as_slot_intents0B9_
FNDA:0,_RNvMNtCsjhUrvNWWn5d_7intents13block_intentsNtB2_11ZeroIntents10from_array
FNDA:0,_RNvMNtCsjhUrvNWWn5d_7intents13block_intentsNtB2_11ZeroIntents3new
FNDA:0,_RNvMs4_NtCsjhUrvNWWn5d_7intents13block_intentsNtB5_9OneIntent10from_array
FNDA:0,_RNvMs4_NtCsjhUrvNWWn5d_7intents13block_intentsNtB5_9OneIntent3new
FNDA:0,_RNvMsa_NtCsjhUrvNWWn5d_7intents13block_intentsNtB5_10TwoIntents10from_array
FNDA:0,_RNvMsa_NtCsjhUrvNWWn5d_7intents13block_intentsNtB5_10TwoIntents3new
FNDA:0,_RNvMsg_NtCsjhUrvNWWn5d_7intents13block_intentsNtB5_12ThreeIntents10from_array
FNDA:0,_RNvMsg_NtCsjhUrvNWWn5d_7intents13block_intentsNtB5_12ThreeIntents3new
FNDA:0,_RNvMsm_NtCsjhUrvNWWn5d_7intents13block_intentsNtB5_11FourIntents10from_array
FNDA:0,_RNvMsm_NtCsjhUrvNWWn5d_7intents13block_intentsNtB5_11FourIntents3new
FNDA:0,_RNvMss_NtCsjhUrvNWWn5d_7intents13block_intentsNtB5_11FiveIntents10from_array
FNDA:0,_RNvMss_NtCsjhUrvNWWn5d_7intents13block_intentsNtB5_11FiveIntents3new
FNDA:0,_RNvXs1_NtCsjhUrvNWWn5d_7intents13block_intentsNtB5_11ZeroIntentsNtB5_12BlockIntents8as_slice
FNDA:0,_RNvXs5_NtCsjhUrvNWWn5d_7intents13block_intentsNtB5_9OneIntentNtNtCskzPJi2J8k3N_4core7default7Default7default
FNDA:0,_RNvXs7_NtCsjhUrvNWWn5d_7intents13block_intentsNtB5_9OneIntentNtB5_12BlockIntents8as_slice
FNDA:0,_RNvXs_NtCsjhUrvNWWn5d_7intents13block_intentsNtB4_11ZeroIntentsNtNtCskzPJi2J8k3N_4core7default7Default7default
FNDA:0,_RNvXsb_NtCsjhUrvNWWn5d_7intents13block_intentsNtB5_10TwoIntentsNtNtCskzPJi2J8k3N_4core7default7Default7default
FNDA:0,_RNvXsd_NtCsjhUrvNWWn5d_7intents13block_intentsNtB5_10TwoIntentsNtB5_12BlockIntents8as_slice
FNDA:0,_RNvXsh_NtCsjhUrvNWWn5d_7intents13block_intentsNtB5_12ThreeIntentsNtNtCskzPJi2J8k3N_4core7default7Default7default
FNDA:0,_RNvXsj_NtCsjhUrvNWWn5d_7intents13block_intentsNtB5_12ThreeIntentsNtB5_12BlockIntents8as_slice
FNDA:0,_RNvXsn_NtCsjhUrvNWWn5d_7intents13block_intentsNtB5_11FourIntentsNtNtCskzPJi2J8k3N_4core7default7Default7default
FNDA:0,_RNvXsp_NtCsjhUrvNWWn5d_7intents13block_intentsNtB5_11FourIntentsNtB5_12BlockIntents8as_slice
FNDA:0,_RNvXst_NtCsjhUrvNWWn5d_7intents13block_intentsNtB5_11FiveIntentsNtNtCskzPJi2J8k3N_4core7default7Default7default
FNDA:0,_RNvXsv_NtCsjhUrvNWWn5d_7intents13block_intentsNtB5_11FiveIntentsNtB5_12BlockIntents8as_slice
FNDA:0,_RNvYpNtNtCsjhUrvNWWn5d_7intents13block_intents12BlockIntents15as_slot_intentsB7_
FNDA:0,_RNvYpNtNtCsjhUrvNWWn5d_7intents13block_intents12BlockIntents3lenB7_
FNDA:0,_RNCNvYNtNtCsS0chBNUBrq_7intents13block_intents11ZeroIntentsNtB6_12BlockIntents15as_slot_intents0Csk8cf5WJa4A9_6blocks
FNDA:0,_RNCNvYNtNtCsS0chBNUBrq_7intents13block_intents9OneIntentNtB6_12BlockIntents15as_slot_intents0Csk8cf5WJa4A9_6blocks
FNDA:0,_RNvYNtNtCsS0chBNUBrq_7intents13block_intents11ZeroIntentsNtB4_12BlockIntents15as_slot_intentsCsk8cf5WJa4A9_6blocks
FNDA:0,_RNvYNtNtCsS0chBNUBrq_7intents13block_intents9OneIntentNtB4_12BlockIntents15as_slot_intentsCsk8cf5WJa4A9_6blocks
FNF:12
FNH:6
DA:11,0
DA:12,0
DA:13,0
DA:15,12
DA:16,12
DA:17,12
DA:18,12
DA:19,12
DA:20,12
DA:21,12
DA:39,24
DA:40,24
DA:41,24
DA:42,0
DA:43,0
DA:44,0
DA:48,11
DA:49,11
DA:50,11
DA:57,12
DA:58,12
DA:59,12
DA:68,4
DA:69,4
DA:70,4
DA:71,0
DA:72,0
DA:73,0
DA:77,0
DA:78,0
DA:79,0
DA:86,4
DA:87,4
DA:88,4
BRF:0
BRH:0
LF:36
LH:22
end_of_record
SF:/Users/mailund/Code/block-flow/intents/src/intents.rs
FN:42,_RNvYNtNtCsS0chBNUBrq_7intents7intents6IntentNtB4_13IntentFactory9no_intentB6_
FN:6,_RNvMNtCsS0chBNUBrq_7intents7intentsNtB2_8NoIntent3new
FN:25,_RNvMs0_NtCsS0chBNUBrq_7intents7intentsNtB5_11PlaceIntent3new
FN:11,_RNvXs_NtCsS0chBNUBrq_7intents7intentsNtB4_8NoIntentNtNtCskzPJi2J8k3N_4core7default7Default7default
FN:46,_RNvYpNtNtCsS0chBNUBrq_7intents7intents13IntentFactory12place_intentB7_
FN:46,_RNvYNtNtCsS0chBNUBrq_7intents7intents6IntentNtB4_13IntentFactory12place_intentCs8vpBMIMeQE0_6blocks
FN:46,_RNvYNtNtCsjhUrvNWWn5d_7intents7intents6IntentNtB4_13IntentFactory12place_intentB6_
FN:6,_RNvMNtCsjhUrvNWWn5d_7intents7intentsNtB2_8NoIntent3new
FN:11,_RNvXs_NtCsjhUrvNWWn5d_7intents7intentsNtB4_8NoIntentNtNtCskzPJi2J8k3N_4core7default7Default7default
FN:42,_RNvYpNtNtCsjhUrvNWWn5d_7intents7intents13IntentFactory9no_intentB7_
FN:25,_RNvMs0_NtCsjhUrvNWWn5d_7intents7intentsNtB5_11PlaceIntent3new
FN:46,_RNvYNtNtCsS0chBNUBrq_7intents7intents6IntentNtB4_13IntentFactory12place_intentCsk8cf5WJa4A9_6blocks
FNDA:2,_RNvYNtNtCsS0chBNUBrq_7intents7intents6IntentNtB4_13IntentFactory9no_intentB6_
FNDA:2,_RNvMNtCsS0chBNUBrq_7intents7intentsNtB2_8NoIntent3new
FNDA:2,_RNvMs0_NtCsS0chBNUBrq_7intents7intentsNtB5_11PlaceIntent3new
FNDA:0,_RNvXs_NtCsS0chBNUBrq_7intents7intentsNtB4_8NoIntentNtNtCskzPJi2J8k3N_4core7default7Default7default
FNDA:0,_RNvYpNtNtCsS0chBNUBrq_7intents7intents13IntentFactory12place_intentB7_
FNDA:2,_RNvYNtNtCsS0chBNUBrq_7intents7intents6IntentNtB4_13IntentFactory12place_intentCs8vpBMIMeQE0_6blocks
FNDA:1,_RNvYNtNtCsjhUrvNWWn5d_7intents7intents6IntentNtB4_13IntentFactory12place_intentB6_
FNDA:0,_RNvMNtCsjhUrvNWWn5d_7intents7intentsNtB2_8NoIntent3new
FNDA:0,_RNvXs_NtCsjhUrvNWWn5d_7intents7intentsNtB4_8NoIntentNtNtCskzPJi2J8k3N_4core7default7Default7default
FNDA:0,_RNvYpNtNtCsjhUrvNWWn5d_7intents7intents13IntentFactory9no_intentB7_
FNDA:1,_RNvMs0_NtCsjhUrvNWWn5d_7intents7intentsNtB5_11PlaceIntent3new
FNDA:0,_RNvYNtNtCsS0chBNUBrq_7intents7intents6IntentNtB4_13IntentFactory12place_intentCsk8cf5WJa4A9_6blocks
FNF:5
FNH:4
DA:6,2
DA:7,2
DA:8,2
DA:11,0
DA:12,0
DA:13,0
DA:25,3
DA:26,3
DA:27,3
DA:28,3
DA:29,3
DA:30,3
DA:31,3
DA:32,3
DA:42,2
DA:43,2
DA:44,2
DA:46,3
DA:47,3
DA:48,3
BRF:0
BRH:0
LF:20
LH:17
end_of_record
SF:/Users/mailund/Code/block-flow/intents/src/lib.rs
FN:16,_RNvMCsS0chBNUBrq_7intentsNtB2_10SlotIntent3new
FN:27,_RNvNtCsjhUrvNWWn5d_7intents5testss_46test_slot_intents_have_block_id_and_slot_index
FN:16,_RNvMCsjhUrvNWWn5d_7intentsNtB2_10SlotIntent3new
FNDA:0,_RNvMCsS0chBNUBrq_7intentsNtB2_10SlotIntent3new
FNDA:1,_RNvNtCsjhUrvNWWn5d_7intents5testss_46test_slot_intents_have_block_id_and_slot_index
FNDA:1,_RNvMCsjhUrvNWWn5d_7intentsNtB2_10SlotIntent3new
FNF:2
FNH:2
DA:16,1
DA:17,1
DA:18,1
DA:27,1
DA:28,1
DA:29,1
DA:30,1
DA:31,1
DA:32,1
DA:33,1
DA:34,1
DA:37,1
DA:38,1
DA:39,1
BRF:0
BRH:0
LF:14
LH:14
end_of_record
SF:/Users/mailund/Code/block-flow/intents/src/slots.rs
FN:8,_RNvMNtCsS0chBNUBrq_7intents5slotsNtB2_6SlotId3new
FN:8,_RNvMNtCsjhUrvNWWn5d_7intents5slotsNtB2_6SlotId3new
FNDA:0,_RNvMNtCsS0chBNUBrq_7intents5slotsNtB2_6SlotId3new
FNDA:1,_RNvMNtCsjhUrvNWWn5d_7intents5slotsNtB2_6SlotId3new
FNF:1
FNH:1
DA:8,1
DA:9,1
DA:10,1
DA:11,1
DA:12,1
DA:13,1
BRF:0
BRH:0
LF:6
LH:6
end_of_record
SF:/Users/mailund/Code/block-flow/serialization-macros/src/lib.rs
FN:39,_RNvCs5jXx11rVQEB_20serialization_macros17serializable_enum
FN:21,_RNvCs5jXx11rVQEB_20serialization_macros19serializable_struct
FN:6,_RNvCs5jXx11rVQEB_20serialization_macros26derive_serializable_struct
FN:39,_RNvCs3wKH1YD4QcW_20serialization_macros17serializable_enum
FN:21,_RNvCs3wKH1YD4QcW_20serialization_macros19serializable_struct
FN:6,_RNvCs3wKH1YD4QcW_20serialization_macros26derive_serializable_struct
FNDA:2,_RNvCs5jXx11rVQEB_20serialization_macros17serializable_enum
FNDA:32,_RNvCs5jXx11rVQEB_20serialization_macros19serializable_struct
FNDA:0,_RNvCs5jXx11rVQEB_20serialization_macros26derive_serializable_struct
FNDA:0,_RNvCs3wKH1YD4QcW_20serialization_macros17serializable_enum
FNDA:0,_RNvCs3wKH1YD4QcW_20serialization_macros19serializable_struct
FNDA:0,_RNvCs3wKH1YD4QcW_20serialization_macros26derive_serializable_struct
FNF:3
FNH:2
DA:6,0
DA:7,0
DA:8,0
DA:9,0
DA:11,0
DA:17,0
DA:18,0
DA:21,32
DA:22,32
DA:23,32
DA:24,32
DA:26,32
DA:35,32
DA:36,32
DA:39,2
DA:40,2
DA:41,2
DA:42,2
DA:44,2
DA:45,2
DA:47,0
DA:48,0
DA:49,0
DA:50,0
DA:51,0
DA:52,0
DA:56,2
DA:58,2
DA:74,2
DA:75,2
BRF:0
BRH:0
LF:30
LH:17
end_of_record
SF:/Users/mailund/Code/block-flow/serialization/src/error.rs
FN:15,_RNvXNtCs7ObwQ5QRwWq_13serialization5errorNtB2_18SerializationErrorNtNtCskzPJi2J8k3N_4core3fmt7Display3fmt
FN:36,_RNvXs0_NtCs7ObwQ5QRwWq_13serialization5errorNtB5_18SerializationErrorINtNtCskzPJi2J8k3N_4core7convert4FromNtNtCs1dyZE4UH4oJ_10serde_json5error5ErrorE4from
FN:42,_RNvXs1_NtCs7ObwQ5QRwWq_13serialization5errorNtB5_18SerializationErrorINtNtCskzPJi2J8k3N_4core7convert4FromNtNtNtCsiThrkg7suPy_3std2io5error5ErrorE4from
FN:25,_RNvXs_NtCs7ObwQ5QRwWq_13serialization5errorNtB4_18SerializationErrorNtNtCskzPJi2J8k3N_4core5error5Error6source
FN:131,_RNvNtNtCs36rHndiqFL9_13serialization5error5testss_23result_type_alias_works
FN:93,_RNvNtNtCs36rHndiqFL9_13serialization5error5testss_27source_for_io_error_is_some
FN:83,_RNvNtNtCs36rHndiqFL9_13serialization5error5testss_29source_for_json_error_is_some
FN:103,_RNvNtNtCs36rHndiqFL9_13serialization5error5testss_31source_for_custom_error_is_none
FN:67,_RNvNtNtCs36rHndiqFL9_13serialization5error5testss_32display_io_error_includes_prefix
FN:57,_RNvNtNtCs36rHndiqFL9_13serialization5error5testss_34display_json_error_includes_prefix
FN:120,_RNvNtNtCs36rHndiqFL9_13serialization5error5testss_36from_io_error_converts_to_io_variant
FN:109,_RNvNtNtCs36rHndiqFL9_13serialization5error5testss_46from_serde_json_error_converts_to_json_variant
FN:76,_RNvNtNtCs36rHndiqFL9_13serialization5error5testss_48display_custom_error_includes_prefix_and_message
FN:132,_RNvNvNtNtCs36rHndiqFL9_13serialization5error5testss_23result_type_alias_works2ok
FN:135,_RNvNvNtNtCs36rHndiqFL9_13serialization5error5testss_23result_type_alias_works4fail
FN:15,_RNvXNtCs36rHndiqFL9_13serialization5errorNtB2_18SerializationErrorNtNtCskzPJi2J8k3N_4core3fmt7Display3fmt
FN:36,_RNvXs0_NtCs36rHndiqFL9_13serialization5errorNtB5_18SerializationErrorINtNtCskzPJi2J8k3N_4core7convert4FromNtNtCs1dyZE4UH4oJ_10serde_json5error5ErrorE4from
FN:42,_RNvXs1_NtCs36rHndiqFL9_13serialization5errorNtB5_18SerializationErrorINtNtCskzPJi2J8k3N_4core7convert4FromNtNtNtCsiThrkg7suPy_3std2io5error5ErrorE4from
FN:25,_RNvXs_NtCs36rHndiqFL9_13serialization5errorNtB4_18SerializationErrorNtNtCskzPJi2J8k3N_4core5error5Error6source
FNDA:0,_RNvXNtCs7ObwQ5QRwWq_13serialization5errorNtB2_18SerializationErrorNtNtCskzPJi2J8k3N_4core3fmt7Display3fmt
FNDA:1,_RNvXs0_NtCs7ObwQ5QRwWq_13serialization5errorNtB5_18SerializationErrorINtNtCskzPJi2J8k3N_4core7convert4FromNtNtCs1dyZE4UH4oJ_10serde_json5error5ErrorE4from
FNDA:0,_RNvXs1_NtCs7ObwQ5QRwWq_13serialization5errorNtB5_18SerializationErrorINtNtCskzPJi2J8k3N_4core7convert4FromNtNtNtCsiThrkg7suPy_3std2io5error5ErrorE4from
FNDA:0,_RNvXs_NtCs7ObwQ5QRwWq_13serialization5errorNtB4_18SerializationErrorNtNtCskzPJi2J8k3N_4core5error5Error6source
FNDA:1,_RNvNtNtCs36rHndiqFL9_13serialization5error5testss_23result_type_alias_works
FNDA:1,_RNvNtNtCs36rHndiqFL9_13serialization5error5testss_27source_for_io_error_is_some
FNDA:1,_RNvNtNtCs36rHndiqFL9_13serialization5error5testss_29source_for_json_error_is_some
FNDA:1,_RNvNtNtCs36rHndiqFL9_13serialization5error5testss_31source_for_custom_error_is_none
FNDA:1,_RNvNtNtCs36rHndiqFL9_13serialization5error5testss_32display_io_error_includes_prefix
FNDA:1,_RNvNtNtCs36rHndiqFL9_13serialization5error5testss_34display_json_error_includes_prefix
FNDA:1,_RNvNtNtCs36rHndiqFL9_13serialization5error5testss_36from_io_error_converts_to_io_variant
FNDA:1,_RNvNtNtCs36rHndiqFL9_13serialization5error5testss_46from_serde_json_error_converts_to_json_variant
FNDA:1,_RNvNtNtCs36rHndiqFL9_13serialization5error5testss_48display_custom_error_includes_prefix_and_message
FNDA:1,_RNvNvNtNtCs36rHndiqFL9_13serialization5error5testss_23result_type_alias_works2ok
FNDA:1,_RNvNvNtNtCs36rHndiqFL9_13serialization5error5testss_23result_type_alias_works4fail
FNDA:4,_RNvXNtCs36rHndiqFL9_13serialization5errorNtB2_18SerializationErrorNtNtCskzPJi2J8k3N_4core3fmt7Display3fmt
FNDA:5,_RNvXs0_NtCs36rHndiqFL9_13serialization5errorNtB5_18SerializationErrorINtNtCskzPJi2J8k3N_4core7convert4FromNtNtCs1dyZE4UH4oJ_10serde_json5error5ErrorE4from
FNDA:1,_RNvXs1_NtCs36rHndiqFL9_13serialization5errorNtB5_18SerializationErrorINtNtCskzPJi2J8k3N_4core7convert4FromNtNtNtCsiThrkg7suPy_3std2io5error5ErrorE4from
FNDA:3,_RNvXs_NtCs36rHndiqFL9_13serialization5errorNtB4_18SerializationErrorNtNtCskzPJi2J8k3N_4core5error5Error6source
FNF:15
FNH:15
DA:15,4
DA:16,4
DA:17,1
DA:18,1
DA:19,2
DA:21,4
DA:25,3
DA:26,3
DA:27,1
DA:28,1
DA:29,1
DA:31,3
DA:36,6
DA:37,6
DA:38,6
DA:42,1
DA:43,1
DA:44,1
DA:57,1
DA:59,1
DA:60,1
DA:62,1
DA:63,1
DA:64,1
DA:67,1
DA:68,1
DA:69,1
DA:71,1
DA:72,1
DA:73,1
DA:76,1
DA:77,1
DA:78,1
DA:79,1
DA:80,1
DA:83,1
DA:84,1
DA:85,1
DA:87,1
DA:88,1
DA:89,1
DA:90,1
DA:93,1
DA:94,1
DA:95,1
DA:97,1
DA:98,1
DA:99,1
DA:100,1
DA:103,1
DA:104,1
DA:105,1
DA:106,1
DA:109,1
DA:110,1
DA:111,1
DA:113,1
DA:114,1
DA:115,0
DA:117,1
DA:120,1
DA:121,1
DA:122,1
DA:124,1
DA:125,1
DA:126,0
DA:128,1
DA:131,1
DA:132,1
DA:133,1
DA:134,1
DA:135,1
DA:136,1
DA:137,1
DA:139,1
DA:140,1
DA:141,1
BRF:0
BRH:0
LF:77
LH:75
end_of_record
SF:/Users/mailund/Code/block-flow/serialization/src/serializer.rs
FN:24,_RINvMNtCs7ObwQ5QRwWq_13serialization10serializerNtB3_10Serializer14to_json_prettyINtNtCsb4HXwg7kb3v_12block_traits11block_weave25BlockSerializationPackageNtNtB1k_5tests13MultiplyBlockEEB1m_
FN:32,_RINvMNtCs7ObwQ5QRwWq_13serialization10serializerNtB3_10Serializer9from_jsonINtNtCsb4HXwg7kb3v_12block_traits11block_weave25BlockSerializationPackageNtNtB1e_5tests13MultiplyBlockEEB1g_
FN:24,_RINvMNtCs7ObwQ5QRwWq_13serialization10serializerNtB3_10Serializer14to_json_prettypEB5_
FN:40,_RINvMNtCs7ObwQ5QRwWq_13serialization10serializerNtB3_10Serializer14to_json_writerppEB5_
FN:60,_RINvMNtCs7ObwQ5QRwWq_13serialization10serializerNtB3_10Serializer16from_json_readerppEB5_
FN:69,_RINvMNtCs7ObwQ5QRwWq_13serialization10serializerNtB3_10Serializer17save_json_to_filepEB5_
FN:78,_RINvMNtCs7ObwQ5QRwWq_13serialization10serializerNtB3_10Serializer19load_json_from_filepEB5_
FN:50,_RINvMNtCs7ObwQ5QRwWq_13serialization10serializerNtB3_10Serializer21to_json_pretty_writerppEB5_
FN:16,_RINvMNtCs7ObwQ5QRwWq_13serialization10serializerNtB3_10Serializer7to_jsonpEB5_
FN:32,_RINvMNtCs7ObwQ5QRwWq_13serialization10serializerNtB3_10Serializer9from_jsonpEB5_
FN:100,_RNvNtNtCs36rHndiqFL9_13serialization10serializer5tests16create_test_data
FN:110,_RNvNtNtCs36rHndiqFL9_13serialization10serializer5testss_19test_json_roundtrip
FN:143,_RNvNtNtCs36rHndiqFL9_13serialization10serializer5testss_23test_json_writer_reader
FN:130,_RNvNtNtCs36rHndiqFL9_13serialization10serializer5testss_24test_json_file_roundtrip
FN:118,_RNvNtNtCs36rHndiqFL9_13serialization10serializer5testss_26test_json_pretty_roundtrip
FN:24,_RINvMNtCs36rHndiqFL9_13serialization10serializerNtB3_10Serializer14to_json_prettyNtNtB3_5tests8TestDataEB5_
FN:24,_RINvMNtCs36rHndiqFL9_13serialization10serializerNtB3_10Serializer14to_json_prettyNtNtNtB5_7structs5tests11TestConfigAEB5_
FN:24,_RINvMNtCs36rHndiqFL9_13serialization10serializerNtB3_10Serializer14to_json_prettyNtNtNtB5_7structs5tests11TestConfigBEB5_
FN:40,_RINvMNtCs36rHndiqFL9_13serialization10serializerNtB3_10Serializer14to_json_writerNtNtB3_5tests8TestDataQINtNtCsganj50Cd8Gx_5alloc3vec3VechEEB5_
FN:60,_RINvMNtCs36rHndiqFL9_13serialization10serializerNtB3_10Serializer16from_json_readerNtNtB3_5tests8TestDataNtNtCsiThrkg7suPy_3std2fs4FileEB5_
FN:60,_RINvMNtCs36rHndiqFL9_13serialization10serializerNtB3_10Serializer16from_json_readerNtNtB3_5tests8TestDataRShEB5_
FN:60,_RINvMNtCs36rHndiqFL9_13serialization10serializerNtB3_10Serializer16from_json_readerNtNtNtB5_7structs5tests11TestConfigANtNvB1l_s_45test_deserialize_from_reader_error_propagates10FailReaderEB5_
FN:60,_RINvMNtCs36rHndiqFL9_13serialization10serializerNtB3_10Serializer16from_json_readerNtNtNtB5_7structs5tests11TestConfigARShEB5_
FN:69,_RINvMNtCs36rHndiqFL9_13serialization10serializerNtB3_10Serializer17save_json_to_fileNtNtB3_5tests8TestDataEB5_
FN:78,_RINvMNtCs36rHndiqFL9_13serialization10serializerNtB3_10Serializer19load_json_from_fileNtNtB3_5tests8TestDataEB5_
FN:50,_RINvMNtCs36rHndiqFL9_13serialization10serializerNtB3_10Serializer21to_json_pretty_writerNtNtB3_5tests8TestDataNtNtCsiThrkg7suPy_3std2fs4FileEB5_
FN:50,_RINvMNtCs36rHndiqFL9_13serialization10serializerNtB3_10Serializer21to_json_pretty_writerNtNtNtB5_7structs5tests11TestConfigANtB1q_16AlwaysFailWriterEB5_
FN:50,_RINvMNtCs36rHndiqFL9_13serialization10serializerNtB3_10Serializer21to_json_pretty_writerNtNtNtB5_7structs5tests11TestConfigAQINtNtCsganj50Cd8Gx_5alloc3vec3VechEEB5_
FN:16,_RINvMNtCs36rHndiqFL9_13serialization10serializerNtB3_10Serializer7to_jsonNtNtB3_5tests8TestDataEB5_
FN:32,_RINvMNtCs36rHndiqFL9_13serialization10serializerNtB3_10Serializer9from_jsonNtNtB3_5tests8TestDataEB5_
FN:32,_RINvMNtCs36rHndiqFL9_13serialization10serializerNtB3_10Serializer9from_jsonNtNtNtB5_7structs5tests11TestConfigAEB5_
FN:32,_RINvMNtCs36rHndiqFL9_13serialization10serializerNtB3_10Serializer9from_jsonNtNtNtB5_7structs5tests11TestConfigBEB5_
FNDA:1,_RINvMNtCs7ObwQ5QRwWq_13serialization10serializerNtB3_10Serializer14to_json_prettyINtNtCsb4HXwg7kb3v_12block_traits11block_weave25BlockSerializationPackageNtNtB1k_5tests13MultiplyBlockEEB1m_
FNDA:2,_RINvMNtCs7ObwQ5QRwWq_13serialization10serializerNtB3_10Serializer9from_jsonINtNtCsb4HXwg7kb3v_12block_traits11block_weave25BlockSerializationPackageNtNtB1e_5tests13MultiplyBlockEEB1g_
FNDA:0,_RINvMNtCs7ObwQ5QRwWq_13serialization10serializerNtB3_10Serializer14to_json_prettypEB5_
FNDA:0,_RINvMNtCs7ObwQ5QRwWq_13serialization10serializerNtB3_10Serializer14to_json_writerppEB5_
FNDA:0,_RINvMNtCs7ObwQ5QRwWq_13serialization10serializerNtB3_10Serializer16from_json_readerppEB5_
FNDA:0,_RINvMNtCs7ObwQ5QRwWq_13serialization10serializerNtB3_10Serializer17save_json_to_filepEB5_
FNDA:0,_RINvMNtCs7ObwQ5QRwWq_13serialization10serializerNtB3_10Serializer19load_json_from_filepEB5_
FNDA:0,_RINvMNtCs7ObwQ5QRwWq_13serialization10serializerNtB3_10Serializer21to_json_pretty_writerppEB5_
FNDA:0,_RINvMNtCs7ObwQ5QRwWq_13serialization10serializerNtB3_10Serializer7to_jsonpEB5_
FNDA:0,_RINvMNtCs7ObwQ5QRwWq_13serialization10serializerNtB3_10Serializer9from_jsonpEB5_
FNDA:4,_RNvNtNtCs36rHndiqFL9_13serialization10serializer5tests16create_test_data
FNDA:1,_RNvNtNtCs36rHndiqFL9_13serialization10serializer5testss_19test_json_roundtrip
FNDA:1,_RNvNtNtCs36rHndiqFL9_13serialization10serializer5testss_23test_json_writer_reader
FNDA:1,_RNvNtNtCs36rHndiqFL9_13serialization10serializer5testss_24test_json_file_roundtrip
FNDA:1,_RNvNtNtCs36rHndiqFL9_13serialization10serializer5testss_26test_json_pretty_roundtrip
FNDA:1,_RINvMNtCs36rHndiqFL9_13serialization10serializerNtB3_10Serializer14to_json_prettyNtNtB3_5tests8TestDataEB5_
FNDA:5,_RINvMNtCs36rHndiqFL9_13serialization10serializerNtB3_10Serializer14to_json_prettyNtNtNtB5_7structs5tests11TestConfigAEB5_
FNDA:2,_RINvMNtCs36rHndiqFL9_13serialization10serializerNtB3_10Serializer14to_json_prettyNtNtNtB5_7structs5tests11TestConfigBEB5_
FNDA:1,_RINvMNtCs36rHndiqFL9_13serialization10serializerNtB3_10Serializer14to_json_writerNtNtB3_5tests8TestDataQINtNtCsganj50Cd8Gx_5alloc3vec3VechEEB5_
FNDA:1,_RINvMNtCs36rHndiqFL9_13serialization10serializerNtB3_10Serializer16from_json_readerNtNtB3_5tests8TestDataNtNtCsiThrkg7suPy_3std2fs4FileEB5_
FNDA:1,_RINvMNtCs36rHndiqFL9_13serialization10serializerNtB3_10Serializer16from_json_readerNtNtB3_5tests8TestDataRShEB5_
FNDA:1,_RINvMNtCs36rHndiqFL9_13serialization10serializerNtB3_10Serializer16from_json_readerNtNtNtB5_7structs5tests11TestConfigANtNvB1l_s_45test_deserialize_from_reader_error_propagates10FailReaderEB5_
FNDA:1,_RINvMNtCs36rHndiqFL9_13serialization10serializerNtB3_10Serializer16from_json_readerNtNtNtB5_7structs5tests11TestConfigARShEB5_
FNDA:1,_RINvMNtCs36rHndiqFL9_13serialization10serializerNtB3_10Serializer17save_json_to_fileNtNtB3_5tests8TestDataEB5_
FNDA:1,_RINvMNtCs36rHndiqFL9_13serialization10serializerNtB3_10Serializer19load_json_from_fileNtNtB3_5tests8TestDataEB5_
FNDA:1,_RINvMNtCs36rHndiqFL9_13serialization10serializerNtB3_10Serializer21to_json_pretty_writerNtNtB3_5tests8TestDataNtNtCsiThrkg7suPy_3std2fs4FileEB5_
FNDA:1,_RINvMNtCs36rHndiqFL9_13serialization10serializerNtB3_10Serializer21to_json_pretty_writerNtNtNtB5_7structs5tests11TestConfigANtB1q_16AlwaysFailWriterEB5_
FNDA:1,_RINvMNtCs36rHndiqFL9_13serialization10serializerNtB3_10Serializer21to_json_pretty_writerNtNtNtB5_7structs5tests11TestConfigAQINtNtCsganj50Cd8Gx_5alloc3vec3VechEEB5_
FNDA:1,_RINvMNtCs36rHndiqFL9_13serialization10serializerNtB3_10Serializer7to_jsonNtNtB3_5tests8TestDataEB5_
FNDA:2,_RINvMNtCs36rHndiqFL9_13serialization10serializerNtB3_10Serializer9from_jsonNtNtB3_5tests8TestDataEB5_
FNDA:6,_RINvMNtCs36rHndiqFL9_13serialization10serializerNtB3_10Serializer9from_jsonNtNtNtB5_7structs5tests11TestConfigAEB5_
FNDA:2,_RINvMNtCs36rHndiqFL9_13serialization10serializerNtB3_10Serializer9from_jsonNtNtNtB5_7structs5tests11TestConfigBEB5_
FNF:13
FNH:13
DA:16,1
DA:17,1
DA:18,1
DA:20,1
DA:21,1
DA:24,9
DA:25,9
DA:26,9
DA:28,9
DA:29,9
DA:32,12
DA:33,12
DA:34,12
DA:36,12
DA:37,12
DA:40,1
DA:41,1
DA:42,1
DA:43,1
DA:45,1
DA:46,1
DA:47,1
DA:50,3
DA:51,3
DA:52,3
DA:53,3
DA:55,3
DA:56,2
DA:57,3
DA:60,4
DA:61,4
DA:62,4
DA:63,4
DA:65,4
DA:66,4
DA:69,1
DA:70,1
DA:71,1
DA:73,1
DA:74,1
DA:75,1
DA:78,1
DA:79,1
DA:80,1
DA:82,1
DA:83,1
DA:84,1
DA:100,4
DA:101,4
DA:102,4
DA:103,4
DA:104,4
DA:105,4
DA:106,4
DA:107,4
DA:110,1
DA:111,1
DA:112,1
DA:113,1
DA:114,1
DA:115,1
DA:118,1
DA:119,1
DA:120,1
DA:121,1
DA:122,1
DA:125,1
DA:126,1
DA:127,1
DA:130,1
DA:131,1
DA:132,1
DA:133,1
DA:136,1
DA:137,1
DA:139,1
DA:140,1
DA:143,1
DA:144,1
DA:145,1
DA:148,1
DA:151,1
DA:153,1
DA:154,1
BRF:0
BRH:0
LF:84
LH:84
end_of_record
SF:/Users/mailund/Code/block-flow/serialization/src/structs.rs
FN:97,_RINvXs0_NtCs7ObwQ5QRwWq_13serialization7structsNtB6_20JsonStructSerializerNtB6_16StructSerializer11deserializeINtNtCsb4HXwg7kb3v_12block_traits11block_weave25BlockSerializationPackageNtNtB1N_5tests13MultiplyBlockEEB1P_
FN:93,_RINvXs0_NtCs7ObwQ5QRwWq_13serialization7structsNtB6_20JsonStructSerializerNtB6_16StructSerializer9serializeINtNtCsb4HXwg7kb3v_12block_traits11block_weave25BlockSerializationPackageNtNtB1K_5tests13MultiplyBlockEEB1M_
FN:81,_RNvMNtCs7ObwQ5QRwWq_13serialization7structsNtB2_20JsonStructSerializer3new
FN:87,_RNvXs_NtCs7ObwQ5QRwWq_13serialization7structsNtB4_20JsonStructSerializerNtNtCskzPJi2J8k3N_4core7default7Default7default
FN:110,_RINvNtCs7ObwQ5QRwWq_13serialization7structs21read_struct_from_jsonpEB4_
FN:97,_RINvXs0_NtCs7ObwQ5QRwWq_13serialization7structsNtB6_20JsonStructSerializerNtB6_16StructSerializer11deserializepEB8_
FN:101,_RINvXs0_NtCs7ObwQ5QRwWq_13serialization7structsNtB6_20JsonStructSerializerNtB6_16StructSerializer19serialize_to_writerppEB8_
FN:105,_RINvXs0_NtCs7ObwQ5QRwWq_13serialization7structsNtB6_20JsonStructSerializerNtB6_16StructSerializer23deserialize_from_readerppEB8_
FN:93,_RINvXs0_NtCs7ObwQ5QRwWq_13serialization7structsNtB6_20JsonStructSerializerNtB6_16StructSerializer9serializepEB8_
FN:135,_RNvNtNtCs36rHndiqFL9_13serialization7structs5tests20create_test_config_a
FN:142,_RNvNtNtCs36rHndiqFL9_13serialization7structs5tests20create_test_config_b
FN:186,_RNvNtNtCs36rHndiqFL9_13serialization7structs5testss_23test_json_output_format
FN:205,_RNvNtNtCs36rHndiqFL9_13serialization7structs5testss_24test_default_constructor
FN:217,_RNvNtNtCs36rHndiqFL9_13serialization7structs5testss_33test_read_struct_from_json_helper
FN:285,_RNvNtNtCs36rHndiqFL9_13serialization7structs5testss_35test_name_parameter_ignored_in_json
FN:229,_RNvNtNtCs36rHndiqFL9_13serialization7structs5testss_36test_invalid_json_deserialize_errors
FN:150,_RNvNtNtCs36rHndiqFL9_13serialization7structs5testss_37test_json_struct_serializer_roundtrip
FN:172,_RNvNtNtCs36rHndiqFL9_13serialization7structs5testss_41test_json_struct_serializer_writer_reader
FN:259,_RNvNtNtCs36rHndiqFL9_13serialization7structs5testss_41test_serialize_to_writer_error_propagates
FN:161,_RNvNtNtCs36rHndiqFL9_13serialization7structs5testss_43test_json_struct_serializer_different_types
FN:269,_RNvNtNtCs36rHndiqFL9_13serialization7structs5testss_45test_deserialize_from_reader_error_propagates
FN:253,_RNvNtNtCs36rHndiqFL9_13serialization7structs5testss_47test_serialize_to_writer_flush_error_is_covered
FN:274,_RNvXNvNtNtCs36rHndiqFL9_13serialization7structs5testss_45test_deserialize_from_reader_error_propagatesNtB2_10FailReaderNtNtCsiThrkg7suPy_3std2io4Read4read
FN:247,_RNvXs0_NtNtCs36rHndiqFL9_13serialization7structs5testsNtB5_16AlwaysFailWriterNtNtCsiThrkg7suPy_3std2io5Write5flush
FN:244,_RNvXs0_NtNtCs36rHndiqFL9_13serialization7structs5testsNtB5_16AlwaysFailWriterNtNtCsiThrkg7suPy_3std2io5Write5write
FN:81,_RNvMNtCs36rHndiqFL9_13serialization7structsNtB2_20JsonStructSerializer3new
FN:87,_RNvXs_NtCs36rHndiqFL9_13serialization7structsNtB4_20JsonStructSerializerNtNtCskzPJi2J8k3N_4core7default7Default7default
FN:110,_RINvNtCs36rHndiqFL9_13serialization7structs21read_struct_from_jsonNtNtB2_5tests11TestConfigAEB4_
FN:110,_RINvNtCs36rHndiqFL9_13serialization7structs21read_struct_from_jsonNtNtB2_5tests11TestConfigBEB4_
FN:97,_RINvXs0_NtCs36rHndiqFL9_13serialization7structsNtB6_20JsonStructSerializerNtB6_16StructSerializer11deserializeNtNtB6_5tests11TestConfigAEB8_
FN:97,_RINvXs0_NtCs36rHndiqFL9_13serialization7structsNtB6_20JsonStructSerializerNtB6_16StructSerializer11deserializeNtNtB6_5tests11TestConfigBEB8_
FN:101,_RINvXs0_NtCs36rHndiqFL9_13serialization7structsNtB6_20JsonStructSerializerNtB6_16StructSerializer19serialize_to_writerNtNtB6_5tests11TestConfigANtB1U_16AlwaysFailWriterEB8_
FN:101,_RINvXs0_NtCs36rHndiqFL9_13serialization7structsNtB6_20JsonStructSerializerNtB6_16StructSerializer19serialize_to_writerNtNtB6_5tests11TestConfigAQINtNtCsganj50Cd8Gx_5alloc3vec3VechEEB8_
FN:105,_RINvXs0_NtCs36rHndiqFL9_13serialization7structsNtB6_20JsonStructSerializerNtB6_16StructSerializer23deserialize_from_readerNtNtB6_5tests11TestConfigANtNvB1Y_s_45test_deserialize_from_reader_error_propagates10FailReaderEB8_
FN:105,_RINvXs0_NtCs36rHndiqFL9_13serialization7structsNtB6_20JsonStructSerializerNtB6_16StructSerializer23deserialize_from_readerNtNtB6_5tests11TestConfigARShEB8_
FN:93,_RINvXs0_NtCs36rHndiqFL9_13serialization7structsNtB6_20JsonStructSerializerNtB6_16StructSerializer9serializeNtNtB6_5tests11TestConfigAEB8_
FN:93,_RINvXs0_NtCs36rHndiqFL9_13serialization7structsNtB6_20JsonStructSerializerNtB6_16StructSerializer9serializeNtNtB6_5tests11TestConfigBEB8_
FNDA:2,_RINvXs0_NtCs7ObwQ5QRwWq_13serialization7structsNtB6_20JsonStructSerializerNtB6_16StructSerializer11deserializeINtNtCsb4HXwg7kb3v_12block_traits11block_weave25BlockSerializationPackageNtNtB1N_5tests13MultiplyBlockEEB1P_
FNDA:1,_RINvXs0_NtCs7ObwQ5QRwWq_13serialization7structsNtB6_20JsonStructSerializerNtB6_16StructSerializer9serializeINtNtCsb4HXwg7kb3v_12block_traits11block_weave25BlockSerializationPackageNtNtB1K_5tests13MultiplyBlockEEB1M_
FNDA:2,_RNvMNtCs7ObwQ5QRwWq_13serialization7structsNtB2_20JsonStructSerializer3new
FNDA:0,_RNvXs_NtCs7ObwQ5QRwWq_13serialization7structsNtB4_20JsonStructSerializerNtNtCskzPJi2J8k3N_4core7default7Default7default
FNDA:0,_RINvNtCs7ObwQ5QRwWq_13serialization7structs21read_struct_from_jsonpEB4_
FNDA:0,_RINvXs0_NtCs7ObwQ5QRwWq_13serialization7structsNtB6_20JsonStructSerializerNtB6_16StructSerializer11deserializepEB8_
FNDA:0,_RINvXs0_NtCs7ObwQ5QRwWq_13serialization7structsNtB6_20JsonStructSerializerNtB6_16StructSerializer19serialize_to_writerppEB8_
FNDA:0,_RINvXs0_NtCs7ObwQ5QRwWq_13serialization7structsNtB6_20JsonStructSerializerNtB6_16StructSerializer23deserialize_from_readerppEB8_
FNDA:0,_RINvXs0_NtCs7ObwQ5QRwWq_13serialization7structsNtB6_20JsonStructSerializerNtB6_16StructSerializer9serializepEB8_
FNDA:5,_RNvNtNtCs36rHndiqFL9_13serialization7structs5tests20create_test_config_a
FNDA:2,_RNvNtNtCs36rHndiqFL9_13serialization7structs5tests20create_test_config_b
FNDA:1,_RNvNtNtCs36rHndiqFL9_13serialization7structs5testss_23test_json_output_format
FNDA:1,_RNvNtNtCs36rHndiqFL9_13serialization7structs5testss_24test_default_constructor
FNDA:1,_RNvNtNtCs36rHndiqFL9_13serialization7structs5testss_33test_read_struct_from_json_helper
FNDA:1,_RNvNtNtCs36rHndiqFL9_13serialization7structs5testss_35test_name_parameter_ignored_in_json
FNDA:1,_RNvNtNtCs36rHndiqFL9_13serialization7structs5testss_36test_invalid_json_deserialize_errors
FNDA:1,_RNvNtNtCs36rHndiqFL9_13serialization7structs5testss_37test_json_struct_serializer_roundtrip
FNDA:1,_RNvNtNtCs36rHndiqFL9_13serialization7structs5testss_41test_json_struct_serializer_writer_reader
FNDA:1,_RNvNtNtCs36rHndiqFL9_13serialization7structs5testss_41test_serialize_to_writer_error_propagates
FNDA:1,_RNvNtNtCs36rHndiqFL9_13serialization7structs5testss_43test_json_struct_serializer_different_types
FNDA:1,_RNvNtNtCs36rHndiqFL9_13serialization7structs5testss_45test_deserialize_from_reader_error_propagates
FNDA:1,_RNvNtNtCs36rHndiqFL9_13serialization7structs5testss_47test_serialize_to_writer_flush_error_is_covered
FNDA:1,_RNvXNvNtNtCs36rHndiqFL9_13serialization7structs5testss_45test_deserialize_from_reader_error_propagatesNtB2_10FailReaderNtNtCsiThrkg7suPy_3std2io4Read4read
FNDA:1,_RNvXs0_NtNtCs36rHndiqFL9_13serialization7structs5testsNtB5_16AlwaysFailWriterNtNtCsiThrkg7suPy_3std2io5Write5flush
FNDA:1,_RNvXs0_NtNtCs36rHndiqFL9_13serialization7structs5testsNtB5_16AlwaysFailWriterNtNtCsiThrkg7suPy_3std2io5Write5write
FNDA:9,_RNvMNtCs36rHndiqFL9_13serialization7structsNtB2_20JsonStructSerializer3new
FNDA:0,_RNvXs_NtCs36rHndiqFL9_13serialization7structsNtB4_20JsonStructSerializerNtNtCskzPJi2J8k3N_4core7default7Default7default
FNDA:1,_RINvNtCs36rHndiqFL9_13serialization7structs21read_struct_from_jsonNtNtB2_5tests11TestConfigAEB4_
FNDA:1,_RINvNtCs36rHndiqFL9_13serialization7structs21read_struct_from_jsonNtNtB2_5tests11TestConfigBEB4_
FNDA:5,_RINvXs0_NtCs36rHndiqFL9_13serialization7structsNtB6_20JsonStructSerializerNtB6_16StructSerializer11deserializeNtNtB6_5tests11TestConfigAEB8_
FNDA:1,_RINvXs0_NtCs36rHndiqFL9_13serialization7structsNtB6_20JsonStructSerializerNtB6_16StructSerializer11deserializeNtNtB6_5tests11TestConfigBEB8_
FNDA:1,_RINvXs0_NtCs36rHndiqFL9_13serialization7structsNtB6_20JsonStructSerializerNtB6_16StructSerializer19serialize_to_writerNtNtB6_5tests11TestConfigANtB1U_16AlwaysFailWriterEB8_
FNDA:1,_RINvXs0_NtCs36rHndiqFL9_13serialization7structsNtB6_20JsonStructSerializerNtB6_16StructSerializer19serialize_to_writerNtNtB6_5tests11TestConfigAQINtNtCsganj50Cd8Gx_5alloc3vec3VechEEB8_
FNDA:1,_RINvXs0_NtCs36rHndiqFL9_13serialization7structsNtB6_20JsonStructSerializerNtB6_16StructSerializer23deserialize_from_readerNtNtB6_5tests11TestConfigANtNvB1Y_s_45test_deserialize_from_reader_error_propagates10FailReaderEB8_
FNDA:1,_RINvXs0_NtCs36rHndiqFL9_13serialization7structsNtB6_20JsonStructSerializerNtB6_16StructSerializer23deserialize_from_readerNtNtB6_5tests11TestConfigARShEB8_
FNDA:5,_RINvXs0_NtCs36rHndiqFL9_13serialization7structsNtB6_20JsonStructSerializerNtB6_16StructSerializer9serializeNtNtB6_5tests11TestConfigAEB8_
FNDA:2,_RINvXs0_NtCs36rHndiqFL9_13serialization7structsNtB6_20JsonStructSerializerNtB6_16StructSerializer9serializeNtNtB6_5tests11TestConfigBEB8_
FNF:23
FNH:22
DA:81,11
DA:82,11
DA:83,11
DA:87,0
DA:88,0
DA:89,0
DA:93,8
DA:94,8
DA:95,8
DA:97,8
DA:98,8
DA:99,8
DA:101,2
DA:102,2
DA:103,2
DA:105,2
DA:106,2
DA:107,2
DA:110,2
DA:111,2
DA:112,2
DA:135,5
DA:136,5
DA:137,5
DA:138,5
DA:139,5
DA:140,5
DA:142,2
DA:143,2
DA:144,2
DA:145,2
DA:146,2
DA:147,2
DA:150,1
DA:151,1
DA:152,1
DA:154,1
DA:155,1
DA:157,1
DA:158,1
DA:161,1
DA:162,1
DA:163,1
DA:165,1
DA:166,1
DA:168,1
DA:169,1
DA:172,1
DA:173,1
DA:174,1
DA:175,1
DA:177,1
DA:178,1
DA:179,1
DA:181,1
DA:182,1
DA:183,1
DA:186,1
DA:187,1
DA:188,1
DA:189,1
DA:190,1
DA:191,1
DA:193,1
DA:194,1
DA:197,1
DA:198,1
DA:199,1
DA:200,1
DA:201,1
DA:202,1
DA:205,1
DA:207,1
DA:208,1
DA:210,1
DA:211,1
DA:213,1
DA:214,1
DA:217,1
DA:219,1
DA:220,1
DA:222,1
DA:223,1
DA:225,1
DA:226,1
DA:229,1
DA:231,1
DA:232,1
DA:234,1
DA:235,1
DA:237,1
DA:238,1
DA:239,1
DA:244,1
DA:245,1
DA:246,1
DA:247,1
DA:248,1
DA:249,1
DA:253,1
DA:254,1
DA:255,1
DA:256,1
DA:259,1
DA:261,1
DA:262,1
DA:264,1
DA:265,1
DA:266,1
DA:269,1
DA:274,1
DA:275,1
DA:276,1
DA:279,1
DA:280,1
DA:281,1
DA:282,1
DA:285,1
DA:286,1
DA:287,1
DA:289,1
DA:290,1
DA:292,1
DA:294,1
DA:295,1
DA:297,1
DA:298,1
DA:299,1
BRF:0
BRH:0
LF:128
LH:125
end_of_record
SF:/Users/mailund/Code/block-flow/trade-types/src/lib.rs
FN:8,_RNvMCsfIj9rnDmdUA_11trade_typesNtB2_8Contract3new
FN:45,_RNvMs2_CsfIj9rnDmdUA_11trade_typesNtB5_8Quantity5in_kw
FN:48,_RNvMs2_CsfIj9rnDmdUA_11trade_typesNtB5_8Quantity5in_mw
FN:75,_RNvMs5_CsfIj9rnDmdUA_11trade_typesNtB5_9Orderbook11top_of_side
FN:18,_RNvMs_CsfIj9rnDmdUA_11trade_typesNtB4_5Price8in_cents
FN:21,_RNvMs_CsfIj9rnDmdUA_11trade_typesNtB4_5Price8in_euros
FN:28,_RNvXs0_CsfIj9rnDmdUA_11trade_typesNtB5_5PriceINtNtCskzPJi2J8k3N_4core7convert4FromNtB5_5CentsE4from
FN:35,_RNvXs1_CsfIj9rnDmdUA_11trade_typesNtB5_5PriceINtNtCskzPJi2J8k3N_4core7convert4FromNtB5_5EurosE4from
FN:55,_RNvXs3_CsfIj9rnDmdUA_11trade_typesNtB5_8QuantityINtNtCskzPJi2J8k3N_4core7convert4FromNtB5_2KwE4from
FN:62,_RNvXs4_CsfIj9rnDmdUA_11trade_typesNtB5_8QuantityINtNtCskzPJi2J8k3N_4core7convert4FromNtB5_2MwE4from
FN:8,_RNvMCs7EpWI7oDuY3_11trade_typesNtB2_8Contract3new
FN:45,_RNvMs2_Cs7EpWI7oDuY3_11trade_typesNtB5_8Quantity5in_kw
FN:48,_RNvMs2_Cs7EpWI7oDuY3_11trade_typesNtB5_8Quantity5in_mw
FN:75,_RNvMs5_Cs7EpWI7oDuY3_11trade_typesNtB5_9Orderbook11top_of_side
FN:18,_RNvMs_Cs7EpWI7oDuY3_11trade_typesNtB4_5Price8in_cents
FN:21,_RNvMs_Cs7EpWI7oDuY3_11trade_typesNtB4_5Price8in_euros
FN:28,_RNvXs0_Cs7EpWI7oDuY3_11trade_typesNtB5_5PriceINtNtCskzPJi2J8k3N_4core7convert4FromNtB5_5CentsE4from
FN:35,_RNvXs1_Cs7EpWI7oDuY3_11trade_typesNtB5_5PriceINtNtCskzPJi2J8k3N_4core7convert4FromNtB5_5EurosE4from
FN:55,_RNvXs3_Cs7EpWI7oDuY3_11trade_typesNtB5_8QuantityINtNtCskzPJi2J8k3N_4core7convert4FromNtB5_2KwE4from
FN:62,_RNvXs4_Cs7EpWI7oDuY3_11trade_typesNtB5_8QuantityINtNtCskzPJi2J8k3N_4core7convert4FromNtB5_2MwE4from
FN:86,_RNvNtCs7EpWI7oDuY3_11trade_types5testss_25contract_new_and_equality
FN:124,_RNvNtCs7EpWI7oDuY3_11trade_types5testss_34side_enum_variants_exist_and_match
FN:110,_RNvNtCs7EpWI7oDuY3_11trade_types5testss_39quantity_from_kw_roundtrip_in_kw_and_mw
FN:117,_RNvNtCs7EpWI7oDuY3_11trade_types5testss_41quantity_from_mw_converts_to_kw_correctly
FN:103,_RNvNtCs7EpWI7oDuY3_11trade_types5testss_44price_from_euros_converts_to_cents_correctly
FN:96,_RNvNtCs7EpWI7oDuY3_11trade_types5testss_45price_from_cents_roundtrip_in_cents_and_euros
FN:140,_RNvNtCs7EpWI7oDuY3_11trade_types5testss_49orderbook_top_of_side_returns_some_for_both_sides
FNDA:8,_RNvMCsfIj9rnDmdUA_11trade_typesNtB2_8Contract3new
FNDA:0,_RNvMs2_CsfIj9rnDmdUA_11trade_typesNtB5_8Quantity5in_kw
FNDA:0,_RNvMs2_CsfIj9rnDmdUA_11trade_typesNtB5_8Quantity5in_mw
FNDA:0,_RNvMs5_CsfIj9rnDmdUA_11trade_typesNtB5_9Orderbook11top_of_side
FNDA:0,_RNvMs_CsfIj9rnDmdUA_11trade_typesNtB4_5Price8in_cents
FNDA:0,_RNvMs_CsfIj9rnDmdUA_11trade_typesNtB4_5Price8in_euros
FNDA:3,_RNvXs0_CsfIj9rnDmdUA_11trade_typesNtB5_5PriceINtNtCskzPJi2J8k3N_4core7convert4FromNtB5_5CentsE4from
FNDA:0,_RNvXs1_CsfIj9rnDmdUA_11trade_typesNtB5_5PriceINtNtCskzPJi2J8k3N_4core7convert4FromNtB5_5EurosE4from
FNDA:3,_RNvXs3_CsfIj9rnDmdUA_11trade_typesNtB5_8QuantityINtNtCskzPJi2J8k3N_4core7convert4FromNtB5_2KwE4from
FNDA:0,_RNvXs4_CsfIj9rnDmdUA_11trade_typesNtB5_8QuantityINtNtCskzPJi2J8k3N_4core7convert4FromNtB5_2MwE4from
FNDA:3,_RNvMCs7EpWI7oDuY3_11trade_typesNtB2_8Contract3new
FNDA:2,_RNvMs2_Cs7EpWI7oDuY3_11trade_typesNtB5_8Quantity5in_kw
FNDA:2,_RNvMs2_Cs7EpWI7oDuY3_11trade_typesNtB5_8Quantity5in_mw
FNDA:2,_RNvMs5_Cs7EpWI7oDuY3_11trade_typesNtB5_9Orderbook11top_of_side
FNDA:2,_RNvMs_Cs7EpWI7oDuY3_11trade_typesNtB4_5Price8in_cents
FNDA:2,_RNvMs_Cs7EpWI7oDuY3_11trade_typesNtB4_5Price8in_euros
FNDA:1,_RNvXs0_Cs7EpWI7oDuY3_11trade_typesNtB5_5PriceINtNtCskzPJi2J8k3N_4core7convert4FromNtB5_5CentsE4from
FNDA:1,_RNvXs1_Cs7EpWI7oDuY3_11trade_typesNtB5_5PriceINtNtCskzPJi2J8k3N_4core7convert4FromNtB5_5EurosE4from
FNDA:1,_RNvXs3_Cs7EpWI7oDuY3_11trade_typesNtB5_8QuantityINtNtCskzPJi2J8k3N_4core7convert4FromNtB5_2KwE4from
FNDA:1,_RNvXs4_Cs7EpWI7oDuY3_11trade_typesNtB5_8QuantityINtNtCskzPJi2J8k3N_4core7convert4FromNtB5_2MwE4from
FNDA:1,_RNvNtCs7EpWI7oDuY3_11trade_types5testss_25contract_new_and_equality
FNDA:1,_RNvNtCs7EpWI7oDuY3_11trade_types5testss_34side_enum_variants_exist_and_match
FNDA:1,_RNvNtCs7EpWI7oDuY3_11trade_types5testss_39quantity_from_kw_roundtrip_in_kw_and_mw
FNDA:1,_RNvNtCs7EpWI7oDuY3_11trade_types5testss_41quantity_from_mw_converts_to_kw_correctly
FNDA:1,_RNvNtCs7EpWI7oDuY3_11trade_types5testss_44price_from_euros_converts_to_cents_correctly
FNDA:1,_RNvNtCs7EpWI7oDuY3_11trade_types5testss_45price_from_cents_roundtrip_in_cents_and_euros
FNDA:1,_RNvNtCs7EpWI7oDuY3_11trade_types5testss_49orderbook_top_of_side_returns_some_for_both_sides
FNF:17
FNH:17
DA:8,11
DA:9,11
DA:10,11
DA:18,2
DA:19,2
DA:20,2
DA:21,2
DA:22,2
DA:23,2
DA:28,4
DA:29,4
DA:30,4
DA:35,1
DA:36,1
DA:37,1
DA:45,2
DA:46,2
DA:47,2
DA:48,2
DA:49,2
DA:50,2
DA:55,4
DA:56,4
DA:57,4
DA:62,1
DA:63,1
DA:64,1
DA:75,2
DA:77,2
DA:78,2
DA:86,1
DA:87,1
DA:88,1
DA:89,1
DA:91,1
DA:92,1
DA:93,1
DA:96,1
DA:97,1
DA:98,1
DA:99,1
DA:100,1
DA:103,1
DA:104,1
DA:105,1
DA:106,1
DA:107,1
DA:110,1
DA:111,1
DA:112,1
DA:113,1
DA:114,1
DA:117,1
DA:118,1
DA:119,1
DA:120,1
DA:121,1
DA:124,1
DA:125,1
DA:126,1
DA:128,1
DA:129,1
DA:130,0
DA:133,1
DA:134,1
DA:135,0
DA:137,1
DA:140,1
DA:141,1
DA:143,1
DA:144,1
DA:146,1
DA:147,1
DA:149,1
DA:150,1
DA:151,1
BRF:0
BRH:0
LF:76
LH:74
end_of_record
SF:/Users/mailund/Code/block-flow/weave-traits/src/lib.rs
FN:16,_RNvXCs82NNbgnBvdf_12weave_traitsINtB2_11TopoOrderedNtNtCsftJwm24TBQa_12block_traits12type_erasure5BlockENtNtNtCskzPJi2J8k3N_4core3ops5deref5Deref5derefCsddPsN7W6Kwt_5weave
FN:16,_RNvXINICs19Ax1hn0rpg_12weave_traits0pEINtB5_11TopoOrderedpENtNtNtCskzPJi2J8k3N_4core3ops5deref5Deref5derefB5_
FNDA:1,_RNvXCs82NNbgnBvdf_12weave_traitsINtB2_11TopoOrderedNtNtCsftJwm24TBQa_12block_traits12type_erasure5BlockENtNtNtCskzPJi2J8k3N_4core3ops5deref5Deref5derefCsddPsN7W6Kwt_5weave
FNDA:0,_RNvXINICs19Ax1hn0rpg_12weave_traits0pEINtB5_11TopoOrderedpENtNtNtCskzPJi2J8k3N_4core3ops5deref5Deref5derefB5_
FNF:1
FNH:1
DA:16,1
DA:17,1
DA:18,1
BRF:0
BRH:0
LF:3
LH:3
end_of_record
SF:/Users/mailund/Code/block-flow/weave/src/lib.rs
FN:94,_RNvNtCsddPsN7W6Kwt_5weave5testss_28weave_after_and_simple_order
FN:5,_RINvCsddPsN7W6Kwt_5weave11weave_nodesNtNtCsftJwm24TBQa_12block_traits12type_erasure5BlockEB2_
FN:13,_RNCINvCsddPsN7W6Kwt_5weave11weave_nodesNtNtCsftJwm24TBQa_12block_traits12type_erasure5BlockE0B4_
FN:52,_RNCINvCsddPsN7W6Kwt_5weave11weave_nodesNtNtCsftJwm24TBQa_12block_traits12type_erasure5BlockEs0_0B4_
FN:70,_RNCINvCsddPsN7W6Kwt_5weave11weave_nodesNtNtCsftJwm24TBQa_12block_traits12type_erasure5BlockEs1_0B4_
FN:14,_RNCINvCsddPsN7W6Kwt_5weave11weave_nodesNtNtCsftJwm24TBQa_12block_traits12type_erasure5BlockEs_0B4_
FNDA:1,_RNvNtCsddPsN7W6Kwt_5weave5testss_28weave_after_and_simple_order
FNDA:1,_RINvCsddPsN7W6Kwt_5weave11weave_nodesNtNtCsftJwm24TBQa_12block_traits12type_erasure5BlockEB2_
FNDA:2,_RNCINvCsddPsN7W6Kwt_5weave11weave_nodesNtNtCsftJwm24TBQa_12block_traits12type_erasure5BlockE0B4_
FNDA:2,_RNCINvCsddPsN7W6Kwt_5weave11weave_nodesNtNtCsftJwm24TBQa_12block_traits12type_erasure5BlockEs0_0B4_
FNDA:0,_RNCINvCsddPsN7W6Kwt_5weave11weave_nodesNtNtCsftJwm24TBQa_12block_traits12type_erasure5BlockEs1_0B4_
FNDA:2,_RNCINvCsddPsN7W6Kwt_5weave11weave_nodesNtNtCsftJwm24TBQa_12block_traits12type_erasure5BlockEs_0B4_
FNF:6
FNH:5
DA:5,1
DA:6,1
DA:7,1
DA:8,1
DA:10,1
DA:13,2
DA:14,2
DA:17,1
DA:18,2
DA:19,3
DA:20,1
DA:21,0
DA:22,1
DA:27,1
DA:28,1
DA:30,2
DA:31,3
DA:32,1
DA:33,1
DA:34,1
DA:35,1
DA:39,0
DA:40,0
DA:41,0
DA:42,0
DA:43,0
DA:49,1
DA:50,1
DA:51,1
DA:52,2
DA:53,1
DA:55,1
DA:56,3
DA:57,2
DA:58,2
DA:59,1
DA:60,1
DA:61,1
DA:62,1
DA:66,1
DA:67,0
DA:68,0
DA:69,0
DA:70,0
DA:71,0
DA:72,0
DA:73,1
DA:76,1
DA:77,3
DA:78,2
DA:81,1
DA:82,1
DA:94,1
DA:95,1
DA:96,1
DA:97,1
DA:98,1
DA:99,1
DA:100,1
DA:101,1
DA:103,1
DA:104,1
DA:105,1
DA:106,1
DA:107,1
DA:108,1
DA:109,1
DA:110,1
DA:111,1
DA:112,1
DA:113,1
DA:114,1
DA:115,1
DA:116,1
DA:117,1
DA:118,0
DA:120,1
DA:121,1
DA:122,1
BRF:0
BRH:0
LF:83
LH:69
end_of_record